((lp0
cnumpy.core.multiarray
_reconstruct
p1
(cnumpy
ndarray
p2
(I0
tp3
S'b'
p4
tp5
Rp6
(I1
(I1
tp7
cnumpy
dtype
p8
(S'f4'
p9
I0
I1
tp10
Rp11
(I3
S'<'
p12
NNNI-1
I-1
I0
tp13
bI00
S'"[\t?'
p14
tp15
bag1
(g2
(I0
tp16
g4
tp17
Rp18
(I1
(I1
tp19
g11
I00
S'\xe7<8?'
p20
tp21
bag1
(g2
(I0
tp22
g4
tp23
Rp24
(I1
(I1
tp25
g11
I00
S'\xee\xc0W?'
p26
tp27
bag1
(g2
(I0
tp28
g4
tp29
Rp30
(I1
(I1
tp31
g11
I00
S'\x85\x8e`?'
p32
tp33
bag1
(g2
(I0
tp34
g4
tp35
Rp36
(I1
(I1
tp37
g11
I00
S'1\x0bc?'
p38
tp39
bag1
(g2
(I0
tp40
g4
tp41
Rp42
(I1
(I1
tp43
g11
I00
S'\x88Qd?'
p44
tp45
bag1
(g2
(I0
tp46
g4
tp47
Rp48
(I1
(I1
tp49
g11
I00
S'\x02Je?'
p50
tp51
bag1
(g2
(I0
tp52
g4
tp53
Rp54
(I1
(I1
tp55
g11
I00
S'\x1f\xd3e?'
p56
tp57
bag1
(g2
(I0
tp58
g4
tp59
Rp60
(I1
(I1
tp61
g11
I00
S'\xed\x0ef?'
p62
tp63
bag1
(g2
(I0
tp64
g4
tp65
Rp66
(I1
(I1
tp67
g11
I00
S'\xa3)f?'
p68
tp69
bag1
(g2
(I0
tp70
g4
tp71
Rp72
(I1
(I1
tp73
g11
I00
S'\xef9f?'
p74
tp75
bag1
(g2
(I0
tp76
g4
tp77
Rp78
(I1
(I1
tp79
g11
I00
S'gRf?'
p80
tp81
bag1
(g2
(I0
tp82
g4
tp83
Rp84
(I1
(I1
tp85
g11
I00
S'\xdftf?'
p86
tp87
bag1
(g2
(I0
tp88
g4
tp89
Rp90
(I1
(I1
tp91
g11
I00
S'\xe3\x9cf?'
p92
tp93
bag1
(g2
(I0
tp94
g4
tp95
Rp96
(I1
(I1
tp97
g11
I00
S'\xe7\xc5f?'
p98
tp99
bag1
(g2
(I0
tp100
g4
tp101
Rp102
(I1
(I1
tp103
g11
I00
S'~\xedf?'
p104
tp105
bag1
(g2
(I0
tp106
g4
tp107
Rp108
(I1
(I1
tp109
g11
I00
S'\x9a\x13g?'
p110
tp111
bag1
(g2
(I0
tp112
g4
tp113
Rp114
(I1
(I1
tp115
g11
I00
S'\xf69g?'
p116
tp117
bag1
(g2
(I0
tp118
g4
tp119
Rp120
(I1
(I1
tp121
g11
I00
S'\x18cg?'
p122
tp123
bag1
(g2
(I0
tp124
g4
tp125
Rp126
(I1
(I1
tp127
g11
I00
S'8\x91g?'
p128
tp129
bag1
(g2
(I0
tp130
g4
tp131
Rp132
(I1
(I1
tp133
g11
I00
S'\x8e\xc4g?'
p134
tp135
bag1
(g2
(I0
tp136
g4
tp137
Rp138
(I1
(I1
tp139
g11
I00
S'\xc6\xf9g?'
p140
tp141
bag1
(g2
(I0
tp142
g4
tp143
Rp144
(I1
(I1
tp145
g11
I00
S'\x99*h?'
p146
tp147
bag1
(g2
(I0
tp148
g4
tp149
Rp150
(I1
(I1
tp151
g11
I00
S'vQh?'
p152
tp153
bag1
(g2
(I0
tp154
g4
tp155
Rp156
(I1
(I1
tp157
g11
I00
S'\xaclh?'
p158
tp159
bag1
(g2
(I0
tp160
g4
tp161
Rp162
(I1
(I1
tp163
g11
I00
S'9~h?'
p164
tp165
bag1
(g2
(I0
tp166
g4
tp167
Rp168
(I1
(I1
tp169
g11
I00
S'!\x89h?'
p170
tp171
bag1
(g2
(I0
tp172
g4
tp173
Rp174
(I1
(I1
tp175
g11
I00
S'\xf3\x8fh?'
p176
tp177
bag1
(g2
(I0
tp178
g4
tp179
Rp180
(I1
(I1
tp181
g11
I00
S'X\x94h?'
p182
tp183
bag1
(g2
(I0
tp184
g4
tp185
Rp186
(I1
(I1
tp187
g11
I00
S'T\x97h?'
p188
tp189
bag1
(g2
(I0
tp190
g4
tp191
Rp192
(I1
(I1
tp193
g11
I00
S'\x80\x99h?'
p194
tp195
bag1
(g2
(I0
tp196
g4
tp197
Rp198
(I1
(I1
tp199
g11
I00
S'$\x9bh?'
p200
tp201
bag1
(g2
(I0
tp202
g4
tp203
Rp204
(I1
(I1
tp205
g11
I00
S'v\x9ch?'
p206
tp207
bag1
(g2
(I0
tp208
g4
tp209
Rp210
(I1
(I1
tp211
g11
I00
S'\x8f\x9dh?'
p212
tp213
bag1
(g2
(I0
tp214
g4
tp215
Rp216
(I1
(I1
tp217
g11
I00
S'}\x9eh?'
p218
tp219
bag1
(g2
(I0
tp220
g4
tp221
Rp222
(I1
(I1
tp223
g11
I00
S'I\x9fh?'
p224
tp225
bag1
(g2
(I0
tp226
g4
tp227
Rp228
(I1
(I1
tp229
g11
I00
S'\xfb\x9fh?'
p230
tp231
bag1
(g2
(I0
tp232
g4
tp233
Rp234
(I1
(I1
tp235
g11
I00
S'\x8f\xa0h?'
p236
tp237
bag1
(g2
(I0
tp238
g4
tp239
Rp240
(I1
(I1
tp241
g11
I00
S'\x13\xa1h?'
p242
tp243
bag1
(g2
(I0
tp244
g4
tp245
Rp246
(I1
(I1
tp247
g11
I00
S'\x88\xa1h?'
p248
tp249
bag1
(g2
(I0
tp250
g4
tp251
Rp252
(I1
(I1
tp253
g11
I00
S'\xe9\xa1h?'
p254
tp255
bag1
(g2
(I0
tp256
g4
tp257
Rp258
(I1
(I1
tp259
g11
I00
S'>\xa2h?'
p260
tp261
bag1
(g2
(I0
tp262
g4
tp263
Rp264
(I1
(I1
tp265
g11
I00
S'\x87\xa2h?'
p266
tp267
bag1
(g2
(I0
tp268
g4
tp269
Rp270
(I1
(I1
tp271
g11
I00
S'\xcb\xa2h?'
p272
tp273
bag1
(g2
(I0
tp274
g4
tp275
Rp276
(I1
(I1
tp277
g11
I00
S'\x04\xa3h?'
p278
tp279
bag1
(g2
(I0
tp280
g4
tp281
Rp282
(I1
(I1
tp283
g11
I00
S'3\xa3h?'
p284
tp285
bag1
(g2
(I0
tp286
g4
tp287
Rp288
(I1
(I1
tp289
g11
I00
S']\xa3h?'
p290
tp291
bag1
(g2
(I0
tp292
g4
tp293
Rp294
(I1
(I1
tp295
g11
I00
S'\x80\xa3h?'
p296
tp297
bag1
(g2
(I0
tp298
g4
tp299
Rp300
(I1
(I1
tp301
g11
I00
S'\xa3\xa3h?'
p302
tp303
bag1
(g2
(I0
tp304
g4
tp305
Rp306
(I1
(I1
tp307
g11
I00
S'\xc1\xa3h?'
p308
tp309
bag1
(g2
(I0
tp310
g4
tp311
Rp312
(I1
(I1
tp313
g11
I00
S'\xda\xa3h?'
p314
tp315
bag1
(g2
(I0
tp316
g4
tp317
Rp318
(I1
(I1
tp319
g11
I00
S'\xf1\xa3h?'
p320
tp321
bag1
(g2
(I0
tp322
g4
tp323
Rp324
(I1
(I1
tp325
g11
I00
S'\x03\xa4h?'
p326
tp327
bag1
(g2
(I0
tp328
g4
tp329
Rp330
(I1
(I1
tp331
g11
I00
S'\x14\xa4h?'
p332
tp333
bag1
(g2
(I0
tp334
g4
tp335
Rp336
(I1
(I1
tp337
g11
I00
S'%\xa4h?'
p338
tp339
bag1
(g2
(I0
tp340
g4
tp341
Rp342
(I1
(I1
tp343
g11
I00
S'5\xa4h?'
p344
tp345
bag1
(g2
(I0
tp346
g4
tp347
Rp348
(I1
(I1
tp349
g11
I00
S'C\xa4h?'
p350
tp351
bag1
(g2
(I0
tp352
g4
tp353
Rp354
(I1
(I1
tp355
g11
I00
S'P\xa4h?'
p356
tp357
bag1
(g2
(I0
tp358
g4
tp359
Rp360
(I1
(I1
tp361
g11
I00
S'Z\xa4h?'
p362
tp363
bag1
(g2
(I0
tp364
g4
tp365
Rp366
(I1
(I1
tp367
g11
I00
S'd\xa4h?'
p368
tp369
bag1
(g2
(I0
tp370
g4
tp371
Rp372
(I1
(I1
tp373
g11
I00
S'l\xa4h?'
p374
tp375
bag1
(g2
(I0
tp376
g4
tp377
Rp378
(I1
(I1
tp379
g11
I00
S'x\xa4h?'
p380
tp381
bag1
(g2
(I0
tp382
g4
tp383
Rp384
(I1
(I1
tp385
g11
I00
S'\x80\xa4h?'
p386
tp387
bag1
(g2
(I0
tp388
g4
tp389
Rp390
(I1
(I1
tp391
g11
I00
S'\x87\xa4h?'
p392
tp393
bag1
(g2
(I0
tp394
g4
tp395
Rp396
(I1
(I1
tp397
g11
I00
S'\x8f\xa4h?'
p398
tp399
bag1
(g2
(I0
tp400
g4
tp401
Rp402
(I1
(I1
tp403
g11
I00
S'\x94\xa4h?'
p404
tp405
bag1
(g2
(I0
tp406
g4
tp407
Rp408
(I1
(I1
tp409
g11
I00
S'\x98\xa4h?'
p410
tp411
bag1
(g2
(I0
tp412
g4
tp413
Rp414
(I1
(I1
tp415
g11
I00
S'\x9d\xa4h?'
p416
tp417
bag1
(g2
(I0
tp418
g4
tp419
Rp420
(I1
(I1
tp421
g11
I00
S'\xa2\xa4h?'
p422
tp423
bag1
(g2
(I0
tp424
g4
tp425
Rp426
(I1
(I1
tp427
g11
I00
S'\xa7\xa4h?'
p428
tp429
bag1
(g2
(I0
tp430
g4
tp431
Rp432
(I1
(I1
tp433
g11
I00
S'\xac\xa4h?'
p434
tp435
bag1
(g2
(I0
tp436
g4
tp437
Rp438
(I1
(I1
tp439
g11
I00
S'\xaf\xa4h?'
p440
tp441
bag1
(g2
(I0
tp442
g4
tp443
Rp444
(I1
(I1
tp445
g11
I00
S'\xb2\xa4h?'
p446
tp447
bag1
(g2
(I0
tp448
g4
tp449
Rp450
(I1
(I1
tp451
g11
I00
S'\xb7\xa4h?'
p452
tp453
bag1
(g2
(I0
tp454
g4
tp455
Rp456
(I1
(I1
tp457
g11
I00
S'\xbc\xa4h?'
p458
tp459
bag1
(g2
(I0
tp460
g4
tp461
Rp462
(I1
(I1
tp463
g11
I00
S'\xbe\xa4h?'
p464
tp465
bag1
(g2
(I0
tp466
g4
tp467
Rp468
(I1
(I1
tp469
g11
I00
S'\xc0\xa4h?'
p470
tp471
bag1
(g2
(I0
tp472
g4
tp473
Rp474
(I1
(I1
tp475
g11
I00
S'\xc3\xa4h?'
p476
tp477
bag1
(g2
(I0
tp478
g4
tp479
Rp480
(I1
(I1
tp481
g11
I00
S'\xc6\xa4h?'
p482
tp483
bag1
(g2
(I0
tp484
g4
tp485
Rp486
(I1
(I1
tp487
g11
I00
S'\xca\xa4h?'
p488
tp489
bag1
(g2
(I0
tp490
g4
tp491
Rp492
(I1
(I1
tp493
g11
I00
S'\xcd\xa4h?'
p494
tp495
bag1
(g2
(I0
tp496
g4
tp497
Rp498
(I1
(I1
tp499
g11
I00
S'\xd0\xa4h?'
p500
tp501
bag1
(g2
(I0
tp502
g4
tp503
Rp504
(I1
(I1
tp505
g11
I00
S'\xd2\xa4h?'
p506
tp507
bag1
(g2
(I0
tp508
g4
tp509
Rp510
(I1
(I1
tp511
g11
I00
S'\xd5\xa4h?'
p512
tp513
bag1
(g2
(I0
tp514
g4
tp515
Rp516
(I1
(I1
tp517
g11
I00
S'\xd5\xa4h?'
p518
tp519
bag1
(g2
(I0
tp520
g4
tp521
Rp522
(I1
(I1
tp523
g11
I00
S'\xda\xa4h?'
p524
tp525
bag1
(g2
(I0
tp526
g4
tp527
Rp528
(I1
(I1
tp529
g11
I00
S'\xde\xa4h?'
p530
tp531
bag1
(g2
(I0
tp532
g4
tp533
Rp534
(I1
(I1
tp535
g11
I00
S'\xdf\xa4h?'
p536
tp537
bag1
(g2
(I0
tp538
g4
tp539
Rp540
(I1
(I1
tp541
g11
I00
S'\xe1\xa4h?'
p542
tp543
bag1
(g2
(I0
tp544
g4
tp545
Rp546
(I1
(I1
tp547
g11
I00
S'\xe4\xa4h?'
p548
tp549
bag1
(g2
(I0
tp550
g4
tp551
Rp552
(I1
(I1
tp553
g11
I00
S'\xe8\xa4h?'
p554
tp555
bag1
(g2
(I0
tp556
g4
tp557
Rp558
(I1
(I1
tp559
g11
I00
S'\xeb\xa4h?'
p560
tp561
bag1
(g2
(I0
tp562
g4
tp563
Rp564
(I1
(I1
tp565
g11
I00
S'\xed\xa4h?'
p566
tp567
bag1
(g2
(I0
tp568
g4
tp569
Rp570
(I1
(I1
tp571
g11
I00
S'\xee\xa4h?'
p572
tp573
bag1
(g2
(I0
tp574
g4
tp575
Rp576
(I1
(I1
tp577
g11
I00
S'\xf0\xa4h?'
p578
tp579
bag1
(g2
(I0
tp580
g4
tp581
Rp582
(I1
(I1
tp583
g11
I00
S'\xf3\xa4h?'
p584
tp585
bag1
(g2
(I0
tp586
g4
tp587
Rp588
(I1
(I1
tp589
g11
I00
S'\xf8\xa4h?'
p590
tp591
bag1
(g2
(I0
tp592
g4
tp593
Rp594
(I1
(I1
tp595
g11
I00
S'\xf8\xa4h?'
p596
tp597
bag1
(g2
(I0
tp598
g4
tp599
Rp600
(I1
(I1
tp601
g11
I00
S'\xfc\xa4h?'
p602
tp603
bag1
(g2
(I0
tp604
g4
tp605
Rp606
(I1
(I1
tp607
g11
I00
S'\xff\xa4h?'
p608
tp609
bag1
(g2
(I0
tp610
g4
tp611
Rp612
(I1
(I1
tp613
g11
I00
S'\x01\xa5h?'
p614
tp615
bag1
(g2
(I0
tp616
g4
tp617
Rp618
(I1
(I1
tp619
g11
I00
S'\x03\xa5h?'
p620
tp621
bag1
(g2
(I0
tp622
g4
tp623
Rp624
(I1
(I1
tp625
g11
I00
S'\x08\xa5h?'
p626
tp627
bag1
(g2
(I0
tp628
g4
tp629
Rp630
(I1
(I1
tp631
g11
I00
S'\t\xa5h?'
p632
tp633
bag1
(g2
(I0
tp634
g4
tp635
Rp636
(I1
(I1
tp637
g11
I00
S'\t\xa5h?'
p638
tp639
bag1
(g2
(I0
tp640
g4
tp641
Rp642
(I1
(I1
tp643
g11
I00
S'\r\xa5h?'
p644
tp645
bag1
(g2
(I0
tp646
g4
tp647
Rp648
(I1
(I1
tp649
g11
I00
S'\x0e\xa5h?'
p650
tp651
bag1
(g2
(I0
tp652
g4
tp653
Rp654
(I1
(I1
tp655
g11
I00
S'\x10\xa5h?'
p656
tp657
bag1
(g2
(I0
tp658
g4
tp659
Rp660
(I1
(I1
tp661
g11
I00
S'\x15\xa5h?'
p662
tp663
bag1
(g2
(I0
tp664
g4
tp665
Rp666
(I1
(I1
tp667
g11
I00
S'\x17\xa5h?'
p668
tp669
bag1
(g2
(I0
tp670
g4
tp671
Rp672
(I1
(I1
tp673
g11
I00
S'\x18\xa5h?'
p674
tp675
bag1
(g2
(I0
tp676
g4
tp677
Rp678
(I1
(I1
tp679
g11
I00
S'\x1c\xa5h?'
p680
tp681
bag1
(g2
(I0
tp682
g4
tp683
Rp684
(I1
(I1
tp685
g11
I00
S'\x1d\xa5h?'
p686
tp687
bag1
(g2
(I0
tp688
g4
tp689
Rp690
(I1
(I1
tp691
g11
I00
S'!\xa5h?'
p692
tp693
bag1
(g2
(I0
tp694
g4
tp695
Rp696
(I1
(I1
tp697
g11
I00
S'$\xa5h?'
p698
tp699
bag1
(g2
(I0
tp700
g4
tp701
Rp702
(I1
(I1
tp703
g11
I00
S'&\xa5h?'
p704
tp705
bag1
(g2
(I0
tp706
g4
tp707
Rp708
(I1
(I1
tp709
g11
I00
S"'\xa5h?"
p710
tp711
bag1
(g2
(I0
tp712
g4
tp713
Rp714
(I1
(I1
tp715
g11
I00
S')\xa5h?'
p716
tp717
bag1
(g2
(I0
tp718
g4
tp719
Rp720
(I1
(I1
tp721
g11
I00
S',\xa5h?'
p722
tp723
bag1
(g2
(I0
tp724
g4
tp725
Rp726
(I1
(I1
tp727
g11
I00
S'0\xa5h?'
p728
tp729
bag1
(g2
(I0
tp730
g4
tp731
Rp732
(I1
(I1
tp733
g11
I00
S'3\xa5h?'
p734
tp735
bag1
(g2
(I0
tp736
g4
tp737
Rp738
(I1
(I1
tp739
g11
I00
S'5\xa5h?'
p740
tp741
bag1
(g2
(I0
tp742
g4
tp743
Rp744
(I1
(I1
tp745
g11
I00
S'5\xa5h?'
p746
tp747
bag1
(g2
(I0
tp748
g4
tp749
Rp750
(I1
(I1
tp751
g11
I00
S':\xa5h?'
p752
tp753
bag1
(g2
(I0
tp754
g4
tp755
Rp756
(I1
(I1
tp757
g11
I00
S'=\xa5h?'
p758
tp759
bag1
(g2
(I0
tp760
g4
tp761
Rp762
(I1
(I1
tp763
g11
I00
S'?\xa5h?'
p764
tp765
bag1
(g2
(I0
tp766
g4
tp767
Rp768
(I1
(I1
tp769
g11
I00
S'@\xa5h?'
p770
tp771
bag1
(g2
(I0
tp772
g4
tp773
Rp774
(I1
(I1
tp775
g11
I00
S'D\xa5h?'
p776
tp777
bag1
(g2
(I0
tp778
g4
tp779
Rp780
(I1
(I1
tp781
g11
I00
S'E\xa5h?'
p782
tp783
bag1
(g2
(I0
tp784
g4
tp785
Rp786
(I1
(I1
tp787
g11
I00
S'G\xa5h?'
p788
tp789
bag1
(g2
(I0
tp790
g4
tp791
Rp792
(I1
(I1
tp793
g11
I00
S'J\xa5h?'
p794
tp795
bag1
(g2
(I0
tp796
g4
tp797
Rp798
(I1
(I1
tp799
g11
I00
S'L\xa5h?'
p800
tp801
bag1
(g2
(I0
tp802
g4
tp803
Rp804
(I1
(I1
tp805
g11
I00
S'N\xa5h?'
p806
tp807
bag1
(g2
(I0
tp808
g4
tp809
Rp810
(I1
(I1
tp811
g11
I00
S'S\xa5h?'
p812
tp813
bag1
(g2
(I0
tp814
g4
tp815
Rp816
(I1
(I1
tp817
g11
I00
S'V\xa5h?'
p818
tp819
bag1
(g2
(I0
tp820
g4
tp821
Rp822
(I1
(I1
tp823
g11
I00
S'V\xa5h?'
p824
tp825
bag1
(g2
(I0
tp826
g4
tp827
Rp828
(I1
(I1
tp829
g11
I00
S'Y\xa5h?'
p830
tp831
bag1
(g2
(I0
tp832
g4
tp833
Rp834
(I1
(I1
tp835
g11
I00
S'[\xa5h?'
p836
tp837
bag1
(g2
(I0
tp838
g4
tp839
Rp840
(I1
(I1
tp841
g11
I00
S'^\xa5h?'
p842
tp843
bag1
(g2
(I0
tp844
g4
tp845
Rp846
(I1
(I1
tp847
g11
I00
S'^\xa5h?'
p848
tp849
bag1
(g2
(I0
tp850
g4
tp851
Rp852
(I1
(I1
tp853
g11
I00
S'`\xa5h?'
p854
tp855
bag1
(g2
(I0
tp856
g4
tp857
Rp858
(I1
(I1
tp859
g11
I00
S'c\xa5h?'
p860
tp861
bag1
(g2
(I0
tp862
g4
tp863
Rp864
(I1
(I1
tp865
g11
I00
S'e\xa5h?'
p866
tp867
bag1
(g2
(I0
tp868
g4
tp869
Rp870
(I1
(I1
tp871
g11
I00
S'g\xa5h?'
p872
tp873
bag1
(g2
(I0
tp874
g4
tp875
Rp876
(I1
(I1
tp877
g11
I00
S'j\xa5h?'
p878
tp879
bag1
(g2
(I0
tp880
g4
tp881
Rp882
(I1
(I1
tp883
g11
I00
S'j\xa5h?'
p884
tp885
bag1
(g2
(I0
tp886
g4
tp887
Rp888
(I1
(I1
tp889
g11
I00
S'l\xa5h?'
p890
tp891
bag1
(g2
(I0
tp892
g4
tp893
Rp894
(I1
(I1
tp895
g11
I00
S'o\xa5h?'
p896
tp897
bag1
(g2
(I0
tp898
g4
tp899
Rp900
(I1
(I1
tp901
g11
I00
S'r\xa5h?'
p902
tp903
bag1
(g2
(I0
tp904
g4
tp905
Rp906
(I1
(I1
tp907
g11
I00
S't\xa5h?'
p908
tp909
bag1
(g2
(I0
tp910
g4
tp911
Rp912
(I1
(I1
tp913
g11
I00
S'w\xa5h?'
p914
tp915
bag1
(g2
(I0
tp916
g4
tp917
Rp918
(I1
(I1
tp919
g11
I00
S'w\xa5h?'
p920
tp921
bag1
(g2
(I0
tp922
g4
tp923
Rp924
(I1
(I1
tp925
g11
I00
S'{\xa5h?'
p926
tp927
bag1
(g2
(I0
tp928
g4
tp929
Rp930
(I1
(I1
tp931
g11
I00
S'|\xa5h?'
p932
tp933
bag1
(g2
(I0
tp934
g4
tp935
Rp936
(I1
(I1
tp937
g11
I00
S'~\xa5h?'
p938
tp939
bag1
(g2
(I0
tp940
g4
tp941
Rp942
(I1
(I1
tp943
g11
I00
S'\x80\xa5h?'
p944
tp945
bag1
(g2
(I0
tp946
g4
tp947
Rp948
(I1
(I1
tp949
g11
I00
S'\x80\xa5h?'
p950
tp951
bag1
(g2
(I0
tp952
g4
tp953
Rp954
(I1
(I1
tp955
g11
I00
S'\x83\xa5h?'
p956
tp957
bag1
(g2
(I0
tp958
g4
tp959
Rp960
(I1
(I1
tp961
g11
I00
S'\x85\xa5h?'
p962
tp963
bag1
(g2
(I0
tp964
g4
tp965
Rp966
(I1
(I1
tp967
g11
I00
S'\x88\xa5h?'
p968
tp969
bag1
(g2
(I0
tp970
g4
tp971
Rp972
(I1
(I1
tp973
g11
I00
S'\x8a\xa5h?'
p974
tp975
bag1
(g2
(I0
tp976
g4
tp977
Rp978
(I1
(I1
tp979
g11
I00
S'\x8f\xa5h?'
p980
tp981
bag1
(g2
(I0
tp982
g4
tp983
Rp984
(I1
(I1
tp985
g11
I00
S'\x8f\xa5h?'
p986
tp987
bag1
(g2
(I0
tp988
g4
tp989
Rp990
(I1
(I1
tp991
g11
I00
S'\x8f\xa5h?'
p992
tp993
bag1
(g2
(I0
tp994
g4
tp995
Rp996
(I1
(I1
tp997
g11
I00
S'\x90\xa5h?'
p998
tp999
bag1
(g2
(I0
tp1000
g4
tp1001
Rp1002
(I1
(I1
tp1003
g11
I00
S'\x90\xa5h?'
p1004
tp1005
bag1
(g2
(I0
tp1006
g4
tp1007
Rp1008
(I1
(I1
tp1009
g11
I00
S'\x94\xa5h?'
p1010
tp1011
bag1
(g2
(I0
tp1012
g4
tp1013
Rp1014
(I1
(I1
tp1015
g11
I00
S'\x97\xa5h?'
p1016
tp1017
bag1
(g2
(I0
tp1018
g4
tp1019
Rp1020
(I1
(I1
tp1021
g11
I00
S'\x99\xa5h?'
p1022
tp1023
bag1
(g2
(I0
tp1024
g4
tp1025
Rp1026
(I1
(I1
tp1027
g11
I00
S'\x99\xa5h?'
p1028
tp1029
bag1
(g2
(I0
tp1030
g4
tp1031
Rp1032
(I1
(I1
tp1033
g11
I00
S'\x99\xa5h?'
p1034
tp1035
bag1
(g2
(I0
tp1036
g4
tp1037
Rp1038
(I1
(I1
tp1039
g11
I00
S'\x9c\xa5h?'
p1040
tp1041
bag1
(g2
(I0
tp1042
g4
tp1043
Rp1044
(I1
(I1
tp1045
g11
I00
S'\x9c\xa5h?'
p1046
tp1047
bag1
(g2
(I0
tp1048
g4
tp1049
Rp1050
(I1
(I1
tp1051
g11
I00
S'\xa1\xa5h?'
p1052
tp1053
bag1
(g2
(I0
tp1054
g4
tp1055
Rp1056
(I1
(I1
tp1057
g11
I00
S'\xa3\xa5h?'
p1058
tp1059
bag1
(g2
(I0
tp1060
g4
tp1061
Rp1062
(I1
(I1
tp1063
g11
I00
S'\xa3\xa5h?'
p1064
tp1065
bag1
(g2
(I0
tp1066
g4
tp1067
Rp1068
(I1
(I1
tp1069
g11
I00
S'\xa6\xa5h?'
p1070
tp1071
bag1
(g2
(I0
tp1072
g4
tp1073
Rp1074
(I1
(I1
tp1075
g11
I00
S'\xa8\xa5h?'
p1076
tp1077
bag1
(g2
(I0
tp1078
g4
tp1079
Rp1080
(I1
(I1
tp1081
g11
I00
S'\xa8\xa5h?'
p1082
tp1083
bag1
(g2
(I0
tp1084
g4
tp1085
Rp1086
(I1
(I1
tp1087
g11
I00
S'\xa9\xa5h?'
p1088
tp1089
bag1
(g2
(I0
tp1090
g4
tp1091
Rp1092
(I1
(I1
tp1093
g11
I00
S'\xab\xa5h?'
p1094
tp1095
bag1
(g2
(I0
tp1096
g4
tp1097
Rp1098
(I1
(I1
tp1099
g11
I00
S'\xae\xa5h?'
p1100
tp1101
bag1
(g2
(I0
tp1102
g4
tp1103
Rp1104
(I1
(I1
tp1105
g11
I00
S'\xae\xa5h?'
p1106
tp1107
bag1
(g2
(I0
tp1108
g4
tp1109
Rp1110
(I1
(I1
tp1111
g11
I00
S'\xb0\xa5h?'
p1112
tp1113
bag1
(g2
(I0
tp1114
g4
tp1115
Rp1116
(I1
(I1
tp1117
g11
I00
S'\xb2\xa5h?'
p1118
tp1119
bag1
(g2
(I0
tp1120
g4
tp1121
Rp1122
(I1
(I1
tp1123
g11
I00
S'\xb3\xa5h?'
p1124
tp1125
bag1
(g2
(I0
tp1126
g4
tp1127
Rp1128
(I1
(I1
tp1129
g11
I00
S'\xb3\xa5h?'
p1130
tp1131
bag1
(g2
(I0
tp1132
g4
tp1133
Rp1134
(I1
(I1
tp1135
g11
I00
S'\xba\xa5h?'
p1136
tp1137
bag1
(g2
(I0
tp1138
g4
tp1139
Rp1140
(I1
(I1
tp1141
g11
I00
S'\xba\xa5h?'
p1142
tp1143
bag1
(g2
(I0
tp1144
g4
tp1145
Rp1146
(I1
(I1
tp1147
g11
I00
S'\xbc\xa5h?'
p1148
tp1149
bag1
(g2
(I0
tp1150
g4
tp1151
Rp1152
(I1
(I1
tp1153
g11
I00
S'\xbd\xa5h?'
p1154
tp1155
bag1
(g2
(I0
tp1156
g4
tp1157
Rp1158
(I1
(I1
tp1159
g11
I00
S'\xbd\xa5h?'
p1160
tp1161
bag1
(g2
(I0
tp1162
g4
tp1163
Rp1164
(I1
(I1
tp1165
g11
I00
S'\xbd\xa5h?'
p1166
tp1167
bag1
(g2
(I0
tp1168
g4
tp1169
Rp1170
(I1
(I1
tp1171
g11
I00
S'\xc1\xa5h?'
p1172
tp1173
bag1
(g2
(I0
tp1174
g4
tp1175
Rp1176
(I1
(I1
tp1177
g11
I00
S'\xc1\xa5h?'
p1178
tp1179
bag1
(g2
(I0
tp1180
g4
tp1181
Rp1182
(I1
(I1
tp1183
g11
I00
S'\xc4\xa5h?'
p1184
tp1185
bag1
(g2
(I0
tp1186
g4
tp1187
Rp1188
(I1
(I1
tp1189
g11
I00
S'\xc4\xa5h?'
p1190
tp1191
bag1
(g2
(I0
tp1192
g4
tp1193
Rp1194
(I1
(I1
tp1195
g11
I00
S'\xc4\xa5h?'
p1196
tp1197
bag1
(g2
(I0
tp1198
g4
tp1199
Rp1200
(I1
(I1
tp1201
g11
I00
S'\xc6\xa5h?'
p1202
tp1203
bag1
(g2
(I0
tp1204
g4
tp1205
Rp1206
(I1
(I1
tp1207
g11
I00
S'\xc7\xa5h?'
p1208
tp1209
bag1
(g2
(I0
tp1210
g4
tp1211
Rp1212
(I1
(I1
tp1213
g11
I00
S'\xc7\xa5h?'
p1214
tp1215
bag1
(g2
(I0
tp1216
g4
tp1217
Rp1218
(I1
(I1
tp1219
g11
I00
S'\xc7\xa5h?'
p1220
tp1221
bag1
(g2
(I0
tp1222
g4
tp1223
Rp1224
(I1
(I1
tp1225
g11
I00
S'\xcb\xa5h?'
p1226
tp1227
bag1
(g2
(I0
tp1228
g4
tp1229
Rp1230
(I1
(I1
tp1231
g11
I00
S'\xce\xa5h?'
p1232
tp1233
bag1
(g2
(I0
tp1234
g4
tp1235
Rp1236
(I1
(I1
tp1237
g11
I00
S'\xce\xa5h?'
p1238
tp1239
bag1
(g2
(I0
tp1240
g4
tp1241
Rp1242
(I1
(I1
tp1243
g11
I00
S'\xd0\xa5h?'
p1244
tp1245
bag1
(g2
(I0
tp1246
g4
tp1247
Rp1248
(I1
(I1
tp1249
g11
I00
S'\xd3\xa5h?'
p1250
tp1251
bag1
(g2
(I0
tp1252
g4
tp1253
Rp1254
(I1
(I1
tp1255
g11
I00
S'\xd3\xa5h?'
p1256
tp1257
bag1
(g2
(I0
tp1258
g4
tp1259
Rp1260
(I1
(I1
tp1261
g11
I00
S'\xd5\xa5h?'
p1262
tp1263
bag1
(g2
(I0
tp1264
g4
tp1265
Rp1266
(I1
(I1
tp1267
g11
I00
S'\xd5\xa5h?'
p1268
tp1269
bag1
(g2
(I0
tp1270
g4
tp1271
Rp1272
(I1
(I1
tp1273
g11
I00
S'\xd5\xa5h?'
p1274
tp1275
bag1
(g2
(I0
tp1276
g4
tp1277
Rp1278
(I1
(I1
tp1279
g11
I00
S'\xd6\xa5h?'
p1280
tp1281
bag1
(g2
(I0
tp1282
g4
tp1283
Rp1284
(I1
(I1
tp1285
g11
I00
S'\xd8\xa5h?'
p1286
tp1287
bag1
(g2
(I0
tp1288
g4
tp1289
Rp1290
(I1
(I1
tp1291
g11
I00
S'\xdb\xa5h?'
p1292
tp1293
bag1
(g2
(I0
tp1294
g4
tp1295
Rp1296
(I1
(I1
tp1297
g11
I00
S'\xdb\xa5h?'
p1298
tp1299
bag1
(g2
(I0
tp1300
g4
tp1301
Rp1302
(I1
(I1
tp1303
g11
I00
S'\xdb\xa5h?'
p1304
tp1305
bag1
(g2
(I0
tp1306
g4
tp1307
Rp1308
(I1
(I1
tp1309
g11
I00
S'\xdb\xa5h?'
p1310
tp1311
bag1
(g2
(I0
tp1312
g4
tp1313
Rp1314
(I1
(I1
tp1315
g11
I00
S'\xdd\xa5h?'
p1316
tp1317
bag1
(g2
(I0
tp1318
g4
tp1319
Rp1320
(I1
(I1
tp1321
g11
I00
S'\xdf\xa5h?'
p1322
tp1323
bag1
(g2
(I0
tp1324
g4
tp1325
Rp1326
(I1
(I1
tp1327
g11
I00
S'\xdf\xa5h?'
p1328
tp1329
bag1
(g2
(I0
tp1330
g4
tp1331
Rp1332
(I1
(I1
tp1333
g11
I00
S'\xe0\xa5h?'
p1334
tp1335
bag1
(g2
(I0
tp1336
g4
tp1337
Rp1338
(I1
(I1
tp1339
g11
I00
S'\xe4\xa5h?'
p1340
tp1341
bag1
(g2
(I0
tp1342
g4
tp1343
Rp1344
(I1
(I1
tp1345
g11
I00
S'\xe5\xa5h?'
p1346
tp1347
bag1
(g2
(I0
tp1348
g4
tp1349
Rp1350
(I1
(I1
tp1351
g11
I00
S'\xe5\xa5h?'
p1352
tp1353
bag1
(g2
(I0
tp1354
g4
tp1355
Rp1356
(I1
(I1
tp1357
g11
I00
S'\xe7\xa5h?'
p1358
tp1359
bag1
(g2
(I0
tp1360
g4
tp1361
Rp1362
(I1
(I1
tp1363
g11
I00
S'\xe9\xa5h?'
p1364
tp1365
bag1
(g2
(I0
tp1366
g4
tp1367
Rp1368
(I1
(I1
tp1369
g11
I00
S'\xe9\xa5h?'
p1370
tp1371
bag1
(g2
(I0
tp1372
g4
tp1373
Rp1374
(I1
(I1
tp1375
g11
I00
S'\xe9\xa5h?'
p1376
tp1377
bag1
(g2
(I0
tp1378
g4
tp1379
Rp1380
(I1
(I1
tp1381
g11
I00
S'\xea\xa5h?'
p1382
tp1383
bag1
(g2
(I0
tp1384
g4
tp1385
Rp1386
(I1
(I1
tp1387
g11
I00
S'\xec\xa5h?'
p1388
tp1389
bag1
(g2
(I0
tp1390
g4
tp1391
Rp1392
(I1
(I1
tp1393
g11
I00
S'\xec\xa5h?'
p1394
tp1395
bag1
(g2
(I0
tp1396
g4
tp1397
Rp1398
(I1
(I1
tp1399
g11
I00
S'\xef\xa5h?'
p1400
tp1401
bag1
(g2
(I0
tp1402
g4
tp1403
Rp1404
(I1
(I1
tp1405
g11
I00
S'\xef\xa5h?'
p1406
tp1407
bag1
(g2
(I0
tp1408
g4
tp1409
Rp1410
(I1
(I1
tp1411
g11
I00
S'\xf1\xa5h?'
p1412
tp1413
bag1
(g2
(I0
tp1414
g4
tp1415
Rp1416
(I1
(I1
tp1417
g11
I00
S'\xf1\xa5h?'
p1418
tp1419
bag1
(g2
(I0
tp1420
g4
tp1421
Rp1422
(I1
(I1
tp1423
g11
I00
S'\xf3\xa5h?'
p1424
tp1425
bag1
(g2
(I0
tp1426
g4
tp1427
Rp1428
(I1
(I1
tp1429
g11
I00
S'\xf3\xa5h?'
p1430
tp1431
bag1
(g2
(I0
tp1432
g4
tp1433
Rp1434
(I1
(I1
tp1435
g11
I00
S'\xf6\xa5h?'
p1436
tp1437
bag1
(g2
(I0
tp1438
g4
tp1439
Rp1440
(I1
(I1
tp1441
g11
I00
S'\xf8\xa5h?'
p1442
tp1443
bag1
(g2
(I0
tp1444
g4
tp1445
Rp1446
(I1
(I1
tp1447
g11
I00
S'\xf8\xa5h?'
p1448
tp1449
bag1
(g2
(I0
tp1450
g4
tp1451
Rp1452
(I1
(I1
tp1453
g11
I00
S'\xf9\xa5h?'
p1454
tp1455
bag1
(g2
(I0
tp1456
g4
tp1457
Rp1458
(I1
(I1
tp1459
g11
I00
S'\xfb\xa5h?'
p1460
tp1461
bag1
(g2
(I0
tp1462
g4
tp1463
Rp1464
(I1
(I1
tp1465
g11
I00
S'\xfe\xa5h?'
p1466
tp1467
bag1
(g2
(I0
tp1468
g4
tp1469
Rp1470
(I1
(I1
tp1471
g11
I00
S'\xfd\xa5h?'
p1472
tp1473
bag1
(g2
(I0
tp1474
g4
tp1475
Rp1476
(I1
(I1
tp1477
g11
I00
S'\xfd\xa5h?'
p1478
tp1479
bag1
(g2
(I0
tp1480
g4
tp1481
Rp1482
(I1
(I1
tp1483
g11
I00
S'\xfe\xa5h?'
p1484
tp1485
bag1
(g2
(I0
tp1486
g4
tp1487
Rp1488
(I1
(I1
tp1489
g11
I00
S'\xfe\xa5h?'
p1490
tp1491
bag1
(g2
(I0
tp1492
g4
tp1493
Rp1494
(I1
(I1
tp1495
g11
I00
S'\x00\xa6h?'
p1496
tp1497
bag1
(g2
(I0
tp1498
g4
tp1499
Rp1500
(I1
(I1
tp1501
g11
I00
S'\x02\xa6h?'
p1502
tp1503
bag1
(g2
(I0
tp1504
g4
tp1505
Rp1506
(I1
(I1
tp1507
g11
I00
S'\x02\xa6h?'
p1508
tp1509
bag1
(g2
(I0
tp1510
g4
tp1511
Rp1512
(I1
(I1
tp1513
g11
I00
S'\x02\xa6h?'
p1514
tp1515
bag1
(g2
(I0
tp1516
g4
tp1517
Rp1518
(I1
(I1
tp1519
g11
I00
S'\x03\xa6h?'
p1520
tp1521
bag1
(g2
(I0
tp1522
g4
tp1523
Rp1524
(I1
(I1
tp1525
g11
I00
S'\x03\xa6h?'
p1526
tp1527
bag1
(g2
(I0
tp1528
g4
tp1529
Rp1530
(I1
(I1
tp1531
g11
I00
S'\x03\xa6h?'
p1532
tp1533
bag1
(g2
(I0
tp1534
g4
tp1535
Rp1536
(I1
(I1
tp1537
g11
I00
S'\x05\xa6h?'
p1538
tp1539
bag1
(g2
(I0
tp1540
g4
tp1541
Rp1542
(I1
(I1
tp1543
g11
I00
S'\x07\xa6h?'
p1544
tp1545
bag1
(g2
(I0
tp1546
g4
tp1547
Rp1548
(I1
(I1
tp1549
g11
I00
S'\x07\xa6h?'
p1550
tp1551
bag1
(g2
(I0
tp1552
g4
tp1553
Rp1554
(I1
(I1
tp1555
g11
I00
S'\n\xa6h?'
p1556
tp1557
bag1
(g2
(I0
tp1558
g4
tp1559
Rp1560
(I1
(I1
tp1561
g11
I00
S'\x0c\xa6h?'
p1562
tp1563
bag1
(g2
(I0
tp1564
g4
tp1565
Rp1566
(I1
(I1
tp1567
g11
I00
S'\x0c\xa6h?'
p1568
tp1569
bag1
(g2
(I0
tp1570
g4
tp1571
Rp1572
(I1
(I1
tp1573
g11
I00
S'\x0c\xa6h?'
p1574
tp1575
bag1
(g2
(I0
tp1576
g4
tp1577
Rp1578
(I1
(I1
tp1579
g11
I00
S'\x0c\xa6h?'
p1580
tp1581
bag1
(g2
(I0
tp1582
g4
tp1583
Rp1584
(I1
(I1
tp1585
g11
I00
S'\r\xa6h?'
p1586
tp1587
bag1
(g2
(I0
tp1588
g4
tp1589
Rp1590
(I1
(I1
tp1591
g11
I00
S'\x0f\xa6h?'
p1592
tp1593
bag1
(g2
(I0
tp1594
g4
tp1595
Rp1596
(I1
(I1
tp1597
g11
I00
S'\x0f\xa6h?'
p1598
tp1599
bag1
(g2
(I0
tp1600
g4
tp1601
Rp1602
(I1
(I1
tp1603
g11
I00
S'\x0f\xa6h?'
p1604
tp1605
bag1
(g2
(I0
tp1606
g4
tp1607
Rp1608
(I1
(I1
tp1609
g11
I00
S'\x11\xa6h?'
p1610
tp1611
bag1
(g2
(I0
tp1612
g4
tp1613
Rp1614
(I1
(I1
tp1615
g11
I00
S'\x12\xa6h?'
p1616
tp1617
bag1
(g2
(I0
tp1618
g4
tp1619
Rp1620
(I1
(I1
tp1621
g11
I00
S'\x14\xa6h?'
p1622
tp1623
bag1
(g2
(I0
tp1624
g4
tp1625
Rp1626
(I1
(I1
tp1627
g11
I00
S'\x14\xa6h?'
p1628
tp1629
bag1
(g2
(I0
tp1630
g4
tp1631
Rp1632
(I1
(I1
tp1633
g11
I00
S'\x14\xa6h?'
p1634
tp1635
bag1
(g2
(I0
tp1636
g4
tp1637
Rp1638
(I1
(I1
tp1639
g11
I00
S'\x16\xa6h?'
p1640
tp1641
bag1
(g2
(I0
tp1642
g4
tp1643
Rp1644
(I1
(I1
tp1645
g11
I00
S'\x16\xa6h?'
p1646
tp1647
bag1
(g2
(I0
tp1648
g4
tp1649
Rp1650
(I1
(I1
tp1651
g11
I00
S'\x16\xa6h?'
p1652
tp1653
bag1
(g2
(I0
tp1654
g4
tp1655
Rp1656
(I1
(I1
tp1657
g11
I00
S'\x17\xa6h?'
p1658
tp1659
bag1
(g2
(I0
tp1660
g4
tp1661
Rp1662
(I1
(I1
tp1663
g11
I00
S'\x17\xa6h?'
p1664
tp1665
bag1
(g2
(I0
tp1666
g4
tp1667
Rp1668
(I1
(I1
tp1669
g11
I00
S'\x17\xa6h?'
p1670
tp1671
bag1
(g2
(I0
tp1672
g4
tp1673
Rp1674
(I1
(I1
tp1675
g11
I00
S'\x19\xa6h?'
p1676
tp1677
bag1
(g2
(I0
tp1678
g4
tp1679
Rp1680
(I1
(I1
tp1681
g11
I00
S'\x19\xa6h?'
p1682
tp1683
bag1
(g2
(I0
tp1684
g4
tp1685
Rp1686
(I1
(I1
tp1687
g11
I00
S'\x1b\xa6h?'
p1688
tp1689
bag1
(g2
(I0
tp1690
g4
tp1691
Rp1692
(I1
(I1
tp1693
g11
I00
S'\x1c\xa6h?'
p1694
tp1695
bag1
(g2
(I0
tp1696
g4
tp1697
Rp1698
(I1
(I1
tp1699
g11
I00
S'\x1e\xa6h?'
p1700
tp1701
bag1
(g2
(I0
tp1702
g4
tp1703
Rp1704
(I1
(I1
tp1705
g11
I00
S'\x1e\xa6h?'
p1706
tp1707
bag1
(g2
(I0
tp1708
g4
tp1709
Rp1710
(I1
(I1
tp1711
g11
I00
S' \xa6h?'
p1712
tp1713
bag1
(g2
(I0
tp1714
g4
tp1715
Rp1716
(I1
(I1
tp1717
g11
I00
S' \xa6h?'
p1718
tp1719
bag1
(g2
(I0
tp1720
g4
tp1721
Rp1722
(I1
(I1
tp1723
g11
I00
S' \xa6h?'
p1724
tp1725
bag1
(g2
(I0
tp1726
g4
tp1727
Rp1728
(I1
(I1
tp1729
g11
I00
S' \xa6h?'
p1730
tp1731
bag1
(g2
(I0
tp1732
g4
tp1733
Rp1734
(I1
(I1
tp1735
g11
I00
S' \xa6h?'
p1736
tp1737
bag1
(g2
(I0
tp1738
g4
tp1739
Rp1740
(I1
(I1
tp1741
g11
I00
S'!\xa6h?'
p1742
tp1743
bag1
(g2
(I0
tp1744
g4
tp1745
Rp1746
(I1
(I1
tp1747
g11
I00
S'!\xa6h?'
p1748
tp1749
bag1
(g2
(I0
tp1750
g4
tp1751
Rp1752
(I1
(I1
tp1753
g11
I00
S'!\xa6h?'
p1754
tp1755
bag1
(g2
(I0
tp1756
g4
tp1757
Rp1758
(I1
(I1
tp1759
g11
I00
S'#\xa6h?'
p1760
tp1761
bag1
(g2
(I0
tp1762
g4
tp1763
Rp1764
(I1
(I1
tp1765
g11
I00
S'#\xa6h?'
p1766
tp1767
bag1
(g2
(I0
tp1768
g4
tp1769
Rp1770
(I1
(I1
tp1771
g11
I00
S'#\xa6h?'
p1772
tp1773
bag1
(g2
(I0
tp1774
g4
tp1775
Rp1776
(I1
(I1
tp1777
g11
I00
S'%\xa6h?'
p1778
tp1779
bag1
(g2
(I0
tp1780
g4
tp1781
Rp1782
(I1
(I1
tp1783
g11
I00
S'&\xa6h?'
p1784
tp1785
bag1
(g2
(I0
tp1786
g4
tp1787
Rp1788
(I1
(I1
tp1789
g11
I00
S'(\xa6h?'
p1790
tp1791
bag1
(g2
(I0
tp1792
g4
tp1793
Rp1794
(I1
(I1
tp1795
g11
I00
S'(\xa6h?'
p1796
tp1797
bag1
(g2
(I0
tp1798
g4
tp1799
Rp1800
(I1
(I1
tp1801
g11
I00
S'*\xa6h?'
p1802
tp1803
bag1
(g2
(I0
tp1804
g4
tp1805
Rp1806
(I1
(I1
tp1807
g11
I00
S'*\xa6h?'
p1808
tp1809
bag1
(g2
(I0
tp1810
g4
tp1811
Rp1812
(I1
(I1
tp1813
g11
I00
S'*\xa6h?'
p1814
tp1815
bag1
(g2
(I0
tp1816
g4
tp1817
Rp1818
(I1
(I1
tp1819
g11
I00
S'*\xa6h?'
p1820
tp1821
bag1
(g2
(I0
tp1822
g4
tp1823
Rp1824
(I1
(I1
tp1825
g11
I00
S'*\xa6h?'
p1826
tp1827
bag1
(g2
(I0
tp1828
g4
tp1829
Rp1830
(I1
(I1
tp1831
g11
I00
S'+\xa6h?'
p1832
tp1833
bag1
(g2
(I0
tp1834
g4
tp1835
Rp1836
(I1
(I1
tp1837
g11
I00
S'+\xa6h?'
p1838
tp1839
bag1
(g2
(I0
tp1840
g4
tp1841
Rp1842
(I1
(I1
tp1843
g11
I00
S'+\xa6h?'
p1844
tp1845
bag1
(g2
(I0
tp1846
g4
tp1847
Rp1848
(I1
(I1
tp1849
g11
I00
S'-\xa6h?'
p1850
tp1851
bag1
(g2
(I0
tp1852
g4
tp1853
Rp1854
(I1
(I1
tp1855
g11
I00
S'-\xa6h?'
p1856
tp1857
bag1
(g2
(I0
tp1858
g4
tp1859
Rp1860
(I1
(I1
tp1861
g11
I00
S'-\xa6h?'
p1862
tp1863
bag1
(g2
(I0
tp1864
g4
tp1865
Rp1866
(I1
(I1
tp1867
g11
I00
S'/\xa6h?'
p1868
tp1869
bag1
(g2
(I0
tp1870
g4
tp1871
Rp1872
(I1
(I1
tp1873
g11
I00
S'0\xa6h?'
p1874
tp1875
bag1
(g2
(I0
tp1876
g4
tp1877
Rp1878
(I1
(I1
tp1879
g11
I00
S'0\xa6h?'
p1880
tp1881
bag1
(g2
(I0
tp1882
g4
tp1883
Rp1884
(I1
(I1
tp1885
g11
I00
S'0\xa6h?'
p1886
tp1887
bag1
(g2
(I0
tp1888
g4
tp1889
Rp1890
(I1
(I1
tp1891
g11
I00
S'0\xa6h?'
p1892
tp1893
bag1
(g2
(I0
tp1894
g4
tp1895
Rp1896
(I1
(I1
tp1897
g11
I00
S'0\xa6h?'
p1898
tp1899
bag1
(g2
(I0
tp1900
g4
tp1901
Rp1902
(I1
(I1
tp1903
g11
I00
S'0\xa6h?'
p1904
tp1905
bag1
(g2
(I0
tp1906
g4
tp1907
Rp1908
(I1
(I1
tp1909
g11
I00
S'2\xa6h?'
p1910
tp1911
bag1
(g2
(I0
tp1912
g4
tp1913
Rp1914
(I1
(I1
tp1915
g11
I00
S'4\xa6h?'
p1916
tp1917
bag1
(g2
(I0
tp1918
g4
tp1919
Rp1920
(I1
(I1
tp1921
g11
I00
S'7\xa6h?'
p1922
tp1923
bag1
(g2
(I0
tp1924
g4
tp1925
Rp1926
(I1
(I1
tp1927
g11
I00
S'7\xa6h?'
p1928
tp1929
bag1
(g2
(I0
tp1930
g4
tp1931
Rp1932
(I1
(I1
tp1933
g11
I00
S'7\xa6h?'
p1934
tp1935
bag1
(g2
(I0
tp1936
g4
tp1937
Rp1938
(I1
(I1
tp1939
g11
I00
S'7\xa6h?'
p1940
tp1941
bag1
(g2
(I0
tp1942
g4
tp1943
Rp1944
(I1
(I1
tp1945
g11
I00
S'9\xa6h?'
p1946
tp1947
bag1
(g2
(I0
tp1948
g4
tp1949
Rp1950
(I1
(I1
tp1951
g11
I00
S'9\xa6h?'
p1952
tp1953
bag1
(g2
(I0
tp1954
g4
tp1955
Rp1956
(I1
(I1
tp1957
g11
I00
S'9\xa6h?'
p1958
tp1959
bag1
(g2
(I0
tp1960
g4
tp1961
Rp1962
(I1
(I1
tp1963
g11
I00
S':\xa6h?'
p1964
tp1965
bag1
(g2
(I0
tp1966
g4
tp1967
Rp1968
(I1
(I1
tp1969
g11
I00
S'<\xa6h?'
p1970
tp1971
bag1
(g2
(I0
tp1972
g4
tp1973
Rp1974
(I1
(I1
tp1975
g11
I00
S'<\xa6h?'
p1976
tp1977
bag1
(g2
(I0
tp1978
g4
tp1979
Rp1980
(I1
(I1
tp1981
g11
I00
S'>\xa6h?'
p1982
tp1983
bag1
(g2
(I0
tp1984
g4
tp1985
Rp1986
(I1
(I1
tp1987
g11
I00
S'>\xa6h?'
p1988
tp1989
bag1
(g2
(I0
tp1990
g4
tp1991
Rp1992
(I1
(I1
tp1993
g11
I00
S'>\xa6h?'
p1994
tp1995
bag1
(g2
(I0
tp1996
g4
tp1997
Rp1998
(I1
(I1
tp1999
g11
I00
S'>\xa6h?'
p2000
tp2001
bag1
(g2
(I0
tp2002
g4
tp2003
Rp2004
(I1
(I1
tp2005
g11
I00
S'?\xa6h?'
p2006
tp2007
bag1
(g2
(I0
tp2008
g4
tp2009
Rp2010
(I1
(I1
tp2011
g11
I00
S'?\xa6h?'
p2012
tp2013
bag1
(g2
(I0
tp2014
g4
tp2015
Rp2016
(I1
(I1
tp2017
g11
I00
S'?\xa6h?'
p2018
tp2019
bag1
(g2
(I0
tp2020
g4
tp2021
Rp2022
(I1
(I1
tp2023
g11
I00
S'?\xa6h?'
p2024
tp2025
bag1
(g2
(I0
tp2026
g4
tp2027
Rp2028
(I1
(I1
tp2029
g11
I00
S'A\xa6h?'
p2030
tp2031
bag1
(g2
(I0
tp2032
g4
tp2033
Rp2034
(I1
(I1
tp2035
g11
I00
S'A\xa6h?'
p2036
tp2037
bag1
(g2
(I0
tp2038
g4
tp2039
Rp2040
(I1
(I1
tp2041
g11
I00
S'A\xa6h?'
p2042
tp2043
bag1
(g2
(I0
tp2044
g4
tp2045
Rp2046
(I1
(I1
tp2047
g11
I00
S'C\xa6h?'
p2048
tp2049
bag1
(g2
(I0
tp2050
g4
tp2051
Rp2052
(I1
(I1
tp2053
g11
I00
S'C\xa6h?'
p2054
tp2055
bag1
(g2
(I0
tp2056
g4
tp2057
Rp2058
(I1
(I1
tp2059
g11
I00
S'C\xa6h?'
p2060
tp2061
bag1
(g2
(I0
tp2062
g4
tp2063
Rp2064
(I1
(I1
tp2065
g11
I00
S'C\xa6h?'
p2066
tp2067
bag1
(g2
(I0
tp2068
g4
tp2069
Rp2070
(I1
(I1
tp2071
g11
I00
S'C\xa6h?'
p2072
tp2073
bag1
(g2
(I0
tp2074
g4
tp2075
Rp2076
(I1
(I1
tp2077
g11
I00
S'D\xa6h?'
p2078
tp2079
bag1
(g2
(I0
tp2080
g4
tp2081
Rp2082
(I1
(I1
tp2083
g11
I00
S'F\xa6h?'
p2084
tp2085
bag1
(g2
(I0
tp2086
g4
tp2087
Rp2088
(I1
(I1
tp2089
g11
I00
S'F\xa6h?'
p2090
tp2091
bag1
(g2
(I0
tp2092
g4
tp2093
Rp2094
(I1
(I1
tp2095
g11
I00
S'F\xa6h?'
p2096
tp2097
bag1
(g2
(I0
tp2098
g4
tp2099
Rp2100
(I1
(I1
tp2101
g11
I00
S'F\xa6h?'
p2102
tp2103
bag1
(g2
(I0
tp2104
g4
tp2105
Rp2106
(I1
(I1
tp2107
g11
I00
S'F\xa6h?'
p2108
tp2109
bag1
(g2
(I0
tp2110
g4
tp2111
Rp2112
(I1
(I1
tp2113
g11
I00
S'F\xa6h?'
p2114
tp2115
bag1
(g2
(I0
tp2116
g4
tp2117
Rp2118
(I1
(I1
tp2119
g11
I00
S'H\xa6h?'
p2120
tp2121
bag1
(g2
(I0
tp2122
g4
tp2123
Rp2124
(I1
(I1
tp2125
g11
I00
S'H\xa6h?'
p2126
tp2127
bag1
(g2
(I0
tp2128
g4
tp2129
Rp2130
(I1
(I1
tp2131
g11
I00
S'H\xa6h?'
p2132
tp2133
bag1
(g2
(I0
tp2134
g4
tp2135
Rp2136
(I1
(I1
tp2137
g11
I00
S'H\xa6h?'
p2138
tp2139
bag1
(g2
(I0
tp2140
g4
tp2141
Rp2142
(I1
(I1
tp2143
g11
I00
S'H\xa6h?'
p2144
tp2145
bag1
(g2
(I0
tp2146
g4
tp2147
Rp2148
(I1
(I1
tp2149
g11
I00
S'I\xa6h?'
p2150
tp2151
bag1
(g2
(I0
tp2152
g4
tp2153
Rp2154
(I1
(I1
tp2155
g11
I00
S'I\xa6h?'
p2156
tp2157
bag1
(g2
(I0
tp2158
g4
tp2159
Rp2160
(I1
(I1
tp2161
g11
I00
S'I\xa6h?'
p2162
tp2163
bag1
(g2
(I0
tp2164
g4
tp2165
Rp2166
(I1
(I1
tp2167
g11
I00
S'I\xa6h?'
p2168
tp2169
bag1
(g2
(I0
tp2170
g4
tp2171
Rp2172
(I1
(I1
tp2173
g11
I00
S'K\xa6h?'
p2174
tp2175
bag1
(g2
(I0
tp2176
g4
tp2177
Rp2178
(I1
(I1
tp2179
g11
I00
S'M\xa6h?'
p2180
tp2181
bag1
(g2
(I0
tp2182
g4
tp2183
Rp2184
(I1
(I1
tp2185
g11
I00
S'N\xa6h?'
p2186
tp2187
bag1
(g2
(I0
tp2188
g4
tp2189
Rp2190
(I1
(I1
tp2191
g11
I00
S'N\xa6h?'
p2192
tp2193
bag1
(g2
(I0
tp2194
g4
tp2195
Rp2196
(I1
(I1
tp2197
g11
I00
S'N\xa6h?'
p2198
tp2199
bag1
(g2
(I0
tp2200
g4
tp2201
Rp2202
(I1
(I1
tp2203
g11
I00
S'N\xa6h?'
p2204
tp2205
bag1
(g2
(I0
tp2206
g4
tp2207
Rp2208
(I1
(I1
tp2209
g11
I00
S'P\xa6h?'
p2210
tp2211
bag1
(g2
(I0
tp2212
g4
tp2213
Rp2214
(I1
(I1
tp2215
g11
I00
S'P\xa6h?'
p2216
tp2217
bag1
(g2
(I0
tp2218
g4
tp2219
Rp2220
(I1
(I1
tp2221
g11
I00
S'P\xa6h?'
p2222
tp2223
bag1
(g2
(I0
tp2224
g4
tp2225
Rp2226
(I1
(I1
tp2227
g11
I00
S'P\xa6h?'
p2228
tp2229
bag1
(g2
(I0
tp2230
g4
tp2231
Rp2232
(I1
(I1
tp2233
g11
I00
S'R\xa6h?'
p2234
tp2235
bag1
(g2
(I0
tp2236
g4
tp2237
Rp2238
(I1
(I1
tp2239
g11
I00
S'S\xa6h?'
p2240
tp2241
bag1
(g2
(I0
tp2242
g4
tp2243
Rp2244
(I1
(I1
tp2245
g11
I00
S'U\xa6h?'
p2246
tp2247
bag1
(g2
(I0
tp2248
g4
tp2249
Rp2250
(I1
(I1
tp2251
g11
I00
S'U\xa6h?'
p2252
tp2253
bag1
(g2
(I0
tp2254
g4
tp2255
Rp2256
(I1
(I1
tp2257
g11
I00
S'U\xa6h?'
p2258
tp2259
bag1
(g2
(I0
tp2260
g4
tp2261
Rp2262
(I1
(I1
tp2263
g11
I00
S'U\xa6h?'
p2264
tp2265
bag1
(g2
(I0
tp2266
g4
tp2267
Rp2268
(I1
(I1
tp2269
g11
I00
S'U\xa6h?'
p2270
tp2271
bag1
(g2
(I0
tp2272
g4
tp2273
Rp2274
(I1
(I1
tp2275
g11
I00
S'S\xa6h?'
p2276
tp2277
bag1
(g2
(I0
tp2278
g4
tp2279
Rp2280
(I1
(I1
tp2281
g11
I00
S'S\xa6h?'
p2282
tp2283
bag1
(g2
(I0
tp2284
g4
tp2285
Rp2286
(I1
(I1
tp2287
g11
I00
S'S\xa6h?'
p2288
tp2289
bag1
(g2
(I0
tp2290
g4
tp2291
Rp2292
(I1
(I1
tp2293
g11
I00
S'U\xa6h?'
p2294
tp2295
bag1
(g2
(I0
tp2296
g4
tp2297
Rp2298
(I1
(I1
tp2299
g11
I00
S'U\xa6h?'
p2300
tp2301
bag1
(g2
(I0
tp2302
g4
tp2303
Rp2304
(I1
(I1
tp2305
g11
I00
S'U\xa6h?'
p2306
tp2307
bag1
(g2
(I0
tp2308
g4
tp2309
Rp2310
(I1
(I1
tp2311
g11
I00
S'U\xa6h?'
p2312
tp2313
bag1
(g2
(I0
tp2314
g4
tp2315
Rp2316
(I1
(I1
tp2317
g11
I00
S'U\xa6h?'
p2318
tp2319
bag1
(g2
(I0
tp2320
g4
tp2321
Rp2322
(I1
(I1
tp2323
g11
I00
S'W\xa6h?'
p2324
tp2325
bag1
(g2
(I0
tp2326
g4
tp2327
Rp2328
(I1
(I1
tp2329
g11
I00
S'W\xa6h?'
p2330
tp2331
bag1
(g2
(I0
tp2332
g4
tp2333
Rp2334
(I1
(I1
tp2335
g11
I00
S'X\xa6h?'
p2336
tp2337
bag1
(g2
(I0
tp2338
g4
tp2339
Rp2340
(I1
(I1
tp2341
g11
I00
S'X\xa6h?'
p2342
tp2343
bag1
(g2
(I0
tp2344
g4
tp2345
Rp2346
(I1
(I1
tp2347
g11
I00
S'X\xa6h?'
p2348
tp2349
bag1
(g2
(I0
tp2350
g4
tp2351
Rp2352
(I1
(I1
tp2353
g11
I00
S'X\xa6h?'
p2354
tp2355
bag1
(g2
(I0
tp2356
g4
tp2357
Rp2358
(I1
(I1
tp2359
g11
I00
S'Z\xa6h?'
p2360
tp2361
bag1
(g2
(I0
tp2362
g4
tp2363
Rp2364
(I1
(I1
tp2365
g11
I00
S'Z\xa6h?'
p2366
tp2367
bag1
(g2
(I0
tp2368
g4
tp2369
Rp2370
(I1
(I1
tp2371
g11
I00
S'Z\xa6h?'
p2372
tp2373
bag1
(g2
(I0
tp2374
g4
tp2375
Rp2376
(I1
(I1
tp2377
g11
I00
S'\\\xa6h?'
p2378
tp2379
bag1
(g2
(I0
tp2380
g4
tp2381
Rp2382
(I1
(I1
tp2383
g11
I00
S'\\\xa6h?'
p2384
tp2385
bag1
(g2
(I0
tp2386
g4
tp2387
Rp2388
(I1
(I1
tp2389
g11
I00
S'\\\xa6h?'
p2390
tp2391
bag1
(g2
(I0
tp2392
g4
tp2393
Rp2394
(I1
(I1
tp2395
g11
I00
S'\\\xa6h?'
p2396
tp2397
bag1
(g2
(I0
tp2398
g4
tp2399
Rp2400
(I1
(I1
tp2401
g11
I00
S'\\\xa6h?'
p2402
tp2403
bag1
(g2
(I0
tp2404
g4
tp2405
Rp2406
(I1
(I1
tp2407
g11
I00
S'\\\xa6h?'
p2408
tp2409
bag1
(g2
(I0
tp2410
g4
tp2411
Rp2412
(I1
(I1
tp2413
g11
I00
S'\\\xa6h?'
p2414
tp2415
bag1
(g2
(I0
tp2416
g4
tp2417
Rp2418
(I1
(I1
tp2419
g11
I00
S'\\\xa6h?'
p2420
tp2421
bag1
(g2
(I0
tp2422
g4
tp2423
Rp2424
(I1
(I1
tp2425
g11
I00
S']\xa6h?'
p2426
tp2427
bag1
(g2
(I0
tp2428
g4
tp2429
Rp2430
(I1
(I1
tp2431
g11
I00
S']\xa6h?'
p2432
tp2433
bag1
(g2
(I0
tp2434
g4
tp2435
Rp2436
(I1
(I1
tp2437
g11
I00
S']\xa6h?'
p2438
tp2439
bag1
(g2
(I0
tp2440
g4
tp2441
Rp2442
(I1
(I1
tp2443
g11
I00
S']\xa6h?'
p2444
tp2445
bag1
(g2
(I0
tp2446
g4
tp2447
Rp2448
(I1
(I1
tp2449
g11
I00
S']\xa6h?'
p2450
tp2451
bag1
(g2
(I0
tp2452
g4
tp2453
Rp2454
(I1
(I1
tp2455
g11
I00
S']\xa6h?'
p2456
tp2457
bag1
(g2
(I0
tp2458
g4
tp2459
Rp2460
(I1
(I1
tp2461
g11
I00
S'_\xa6h?'
p2462
tp2463
bag1
(g2
(I0
tp2464
g4
tp2465
Rp2466
(I1
(I1
tp2467
g11
I00
S'_\xa6h?'
p2468
tp2469
bag1
(g2
(I0
tp2470
g4
tp2471
Rp2472
(I1
(I1
tp2473
g11
I00
S'a\xa6h?'
p2474
tp2475
bag1
(g2
(I0
tp2476
g4
tp2477
Rp2478
(I1
(I1
tp2479
g11
I00
S'a\xa6h?'
p2480
tp2481
bag1
(g2
(I0
tp2482
g4
tp2483
Rp2484
(I1
(I1
tp2485
g11
I00
S'b\xa6h?'
p2486
tp2487
bag1
(g2
(I0
tp2488
g4
tp2489
Rp2490
(I1
(I1
tp2491
g11
I00
S'b\xa6h?'
p2492
tp2493
bag1
(g2
(I0
tp2494
g4
tp2495
Rp2496
(I1
(I1
tp2497
g11
I00
S'b\xa6h?'
p2498
tp2499
bag1
(g2
(I0
tp2500
g4
tp2501
Rp2502
(I1
(I1
tp2503
g11
I00
S'b\xa6h?'
p2504
tp2505
bag1
(g2
(I0
tp2506
g4
tp2507
Rp2508
(I1
(I1
tp2509
g11
I00
S'b\xa6h?'
p2510
tp2511
bag1
(g2
(I0
tp2512
g4
tp2513
Rp2514
(I1
(I1
tp2515
g11
I00
S'b\xa6h?'
p2516
tp2517
bag1
(g2
(I0
tp2518
g4
tp2519
Rp2520
(I1
(I1
tp2521
g11
I00
S'b\xa6h?'
p2522
tp2523
bag1
(g2
(I0
tp2524
g4
tp2525
Rp2526
(I1
(I1
tp2527
g11
I00
S'b\xa6h?'
p2528
tp2529
bag1
(g2
(I0
tp2530
g4
tp2531
Rp2532
(I1
(I1
tp2533
g11
I00
S'f\xa6h?'
p2534
tp2535
bag1
(g2
(I0
tp2536
g4
tp2537
Rp2538
(I1
(I1
tp2539
g11
I00
S'g\xa6h?'
p2540
tp2541
bag1
(g2
(I0
tp2542
g4
tp2543
Rp2544
(I1
(I1
tp2545
g11
I00
S'g\xa6h?'
p2546
tp2547
bag1
(g2
(I0
tp2548
g4
tp2549
Rp2550
(I1
(I1
tp2551
g11
I00
S'g\xa6h?'
p2552
tp2553
bag1
(g2
(I0
tp2554
g4
tp2555
Rp2556
(I1
(I1
tp2557
g11
I00
S'g\xa6h?'
p2558
tp2559
bag1
(g2
(I0
tp2560
g4
tp2561
Rp2562
(I1
(I1
tp2563
g11
I00
S'g\xa6h?'
p2564
tp2565
bag1
(g2
(I0
tp2566
g4
tp2567
Rp2568
(I1
(I1
tp2569
g11
I00
S'g\xa6h?'
p2570
tp2571
bag1
(g2
(I0
tp2572
g4
tp2573
Rp2574
(I1
(I1
tp2575
g11
I00
S'i\xa6h?'
p2576
tp2577
bag1
(g2
(I0
tp2578
g4
tp2579
Rp2580
(I1
(I1
tp2581
g11
I00
S'i\xa6h?'
p2582
tp2583
bag1
(g2
(I0
tp2584
g4
tp2585
Rp2586
(I1
(I1
tp2587
g11
I00
S'i\xa6h?'
p2588
tp2589
bag1
(g2
(I0
tp2590
g4
tp2591
Rp2592
(I1
(I1
tp2593
g11
I00
S'i\xa6h?'
p2594
tp2595
bag1
(g2
(I0
tp2596
g4
tp2597
Rp2598
(I1
(I1
tp2599
g11
I00
S'i\xa6h?'
p2600
tp2601
bag1
(g2
(I0
tp2602
g4
tp2603
Rp2604
(I1
(I1
tp2605
g11
I00
S'i\xa6h?'
p2606
tp2607
bag1
(g2
(I0
tp2608
g4
tp2609
Rp2610
(I1
(I1
tp2611
g11
I00
S'k\xa6h?'
p2612
tp2613
bag1
(g2
(I0
tp2614
g4
tp2615
Rp2616
(I1
(I1
tp2617
g11
I00
S'k\xa6h?'
p2618
tp2619
bag1
(g2
(I0
tp2620
g4
tp2621
Rp2622
(I1
(I1
tp2623
g11
I00
S'k\xa6h?'
p2624
tp2625
bag1
(g2
(I0
tp2626
g4
tp2627
Rp2628
(I1
(I1
tp2629
g11
I00
S'k\xa6h?'
p2630
tp2631
bag1
(g2
(I0
tp2632
g4
tp2633
Rp2634
(I1
(I1
tp2635
g11
I00
S'k\xa6h?'
p2636
tp2637
bag1
(g2
(I0
tp2638
g4
tp2639
Rp2640
(I1
(I1
tp2641
g11
I00
S'l\xa6h?'
p2642
tp2643
bag1
(g2
(I0
tp2644
g4
tp2645
Rp2646
(I1
(I1
tp2647
g11
I00
S'l\xa6h?'
p2648
tp2649
bag1
(g2
(I0
tp2650
g4
tp2651
Rp2652
(I1
(I1
tp2653
g11
I00
S'l\xa6h?'
p2654
tp2655
bag1
(g2
(I0
tp2656
g4
tp2657
Rp2658
(I1
(I1
tp2659
g11
I00
S'l\xa6h?'
p2660
tp2661
bag1
(g2
(I0
tp2662
g4
tp2663
Rp2664
(I1
(I1
tp2665
g11
I00
S'l\xa6h?'
p2666
tp2667
bag1
(g2
(I0
tp2668
g4
tp2669
Rp2670
(I1
(I1
tp2671
g11
I00
S'l\xa6h?'
p2672
tp2673
bag1
(g2
(I0
tp2674
g4
tp2675
Rp2676
(I1
(I1
tp2677
g11
I00
S'l\xa6h?'
p2678
tp2679
bag1
(g2
(I0
tp2680
g4
tp2681
Rp2682
(I1
(I1
tp2683
g11
I00
S'l\xa6h?'
p2684
tp2685
bag1
(g2
(I0
tp2686
g4
tp2687
Rp2688
(I1
(I1
tp2689
g11
I00
S'l\xa6h?'
p2690
tp2691
bag1
(g2
(I0
tp2692
g4
tp2693
Rp2694
(I1
(I1
tp2695
g11
I00
S'l\xa6h?'
p2696
tp2697
bag1
(g2
(I0
tp2698
g4
tp2699
Rp2700
(I1
(I1
tp2701
g11
I00
S'l\xa6h?'
p2702
tp2703
bag1
(g2
(I0
tp2704
g4
tp2705
Rp2706
(I1
(I1
tp2707
g11
I00
S'l\xa6h?'
p2708
tp2709
bag1
(g2
(I0
tp2710
g4
tp2711
Rp2712
(I1
(I1
tp2713
g11
I00
S'l\xa6h?'
p2714
tp2715
bag1
(g2
(I0
tp2716
g4
tp2717
Rp2718
(I1
(I1
tp2719
g11
I00
S'l\xa6h?'
p2720
tp2721
bag1
(g2
(I0
tp2722
g4
tp2723
Rp2724
(I1
(I1
tp2725
g11
I00
S'l\xa6h?'
p2726
tp2727
bag1
(g2
(I0
tp2728
g4
tp2729
Rp2730
(I1
(I1
tp2731
g11
I00
S'l\xa6h?'
p2732
tp2733
bag1
(g2
(I0
tp2734
g4
tp2735
Rp2736
(I1
(I1
tp2737
g11
I00
S'n\xa6h?'
p2738
tp2739
bag1
(g2
(I0
tp2740
g4
tp2741
Rp2742
(I1
(I1
tp2743
g11
I00
S'n\xa6h?'
p2744
tp2745
bag1
(g2
(I0
tp2746
g4
tp2747
Rp2748
(I1
(I1
tp2749
g11
I00
S'n\xa6h?'
p2750
tp2751
bag1
(g2
(I0
tp2752
g4
tp2753
Rp2754
(I1
(I1
tp2755
g11
I00
S'n\xa6h?'
p2756
tp2757
bag1
(g2
(I0
tp2758
g4
tp2759
Rp2760
(I1
(I1
tp2761
g11
I00
S'n\xa6h?'
p2762
tp2763
bag1
(g2
(I0
tp2764
g4
tp2765
Rp2766
(I1
(I1
tp2767
g11
I00
S'p\xa6h?'
p2768
tp2769
bag1
(g2
(I0
tp2770
g4
tp2771
Rp2772
(I1
(I1
tp2773
g11
I00
S'q\xa6h?'
p2774
tp2775
bag1
(g2
(I0
tp2776
g4
tp2777
Rp2778
(I1
(I1
tp2779
g11
I00
S'q\xa6h?'
p2780
tp2781
bag1
(g2
(I0
tp2782
g4
tp2783
Rp2784
(I1
(I1
tp2785
g11
I00
S'q\xa6h?'
p2786
tp2787
bag1
(g2
(I0
tp2788
g4
tp2789
Rp2790
(I1
(I1
tp2791
g11
I00
S'q\xa6h?'
p2792
tp2793
bag1
(g2
(I0
tp2794
g4
tp2795
Rp2796
(I1
(I1
tp2797
g11
I00
S'q\xa6h?'
p2798
tp2799
bag1
(g2
(I0
tp2800
g4
tp2801
Rp2802
(I1
(I1
tp2803
g11
I00
S'q\xa6h?'
p2804
tp2805
bag1
(g2
(I0
tp2806
g4
tp2807
Rp2808
(I1
(I1
tp2809
g11
I00
S'q\xa6h?'
p2810
tp2811
bag1
(g2
(I0
tp2812
g4
tp2813
Rp2814
(I1
(I1
tp2815
g11
I00
S'q\xa6h?'
p2816
tp2817
bag1
(g2
(I0
tp2818
g4
tp2819
Rp2820
(I1
(I1
tp2821
g11
I00
S'q\xa6h?'
p2822
tp2823
bag1
(g2
(I0
tp2824
g4
tp2825
Rp2826
(I1
(I1
tp2827
g11
I00
S'q\xa6h?'
p2828
tp2829
bag1
(g2
(I0
tp2830
g4
tp2831
Rp2832
(I1
(I1
tp2833
g11
I00
S'q\xa6h?'
p2834
tp2835
bag1
(g2
(I0
tp2836
g4
tp2837
Rp2838
(I1
(I1
tp2839
g11
I00
S'q\xa6h?'
p2840
tp2841
bag1
(g2
(I0
tp2842
g4
tp2843
Rp2844
(I1
(I1
tp2845
g11
I00
S'q\xa6h?'
p2846
tp2847
bag1
(g2
(I0
tp2848
g4
tp2849
Rp2850
(I1
(I1
tp2851
g11
I00
S's\xa6h?'
p2852
tp2853
bag1
(g2
(I0
tp2854
g4
tp2855
Rp2856
(I1
(I1
tp2857
g11
I00
S's\xa6h?'
p2858
tp2859
bag1
(g2
(I0
tp2860
g4
tp2861
Rp2862
(I1
(I1
tp2863
g11
I00
S's\xa6h?'
p2864
tp2865
bag1
(g2
(I0
tp2866
g4
tp2867
Rp2868
(I1
(I1
tp2869
g11
I00
S's\xa6h?'
p2870
tp2871
bag1
(g2
(I0
tp2872
g4
tp2873
Rp2874
(I1
(I1
tp2875
g11
I00
S's\xa6h?'
p2876
tp2877
bag1
(g2
(I0
tp2878
g4
tp2879
Rp2880
(I1
(I1
tp2881
g11
I00
S's\xa6h?'
p2882
tp2883
bag1
(g2
(I0
tp2884
g4
tp2885
Rp2886
(I1
(I1
tp2887
g11
I00
S's\xa6h?'
p2888
tp2889
bag1
(g2
(I0
tp2890
g4
tp2891
Rp2892
(I1
(I1
tp2893
g11
I00
S's\xa6h?'
p2894
tp2895
bag1
(g2
(I0
tp2896
g4
tp2897
Rp2898
(I1
(I1
tp2899
g11
I00
S's\xa6h?'
p2900
tp2901
bag1
(g2
(I0
tp2902
g4
tp2903
Rp2904
(I1
(I1
tp2905
g11
I00
S's\xa6h?'
p2906
tp2907
bag1
(g2
(I0
tp2908
g4
tp2909
Rp2910
(I1
(I1
tp2911
g11
I00
S's\xa6h?'
p2912
tp2913
bag1
(g2
(I0
tp2914
g4
tp2915
Rp2916
(I1
(I1
tp2917
g11
I00
S's\xa6h?'
p2918
tp2919
bag1
(g2
(I0
tp2920
g4
tp2921
Rp2922
(I1
(I1
tp2923
g11
I00
S's\xa6h?'
p2924
tp2925
bag1
(g2
(I0
tp2926
g4
tp2927
Rp2928
(I1
(I1
tp2929
g11
I00
S'u\xa6h?'
p2930
tp2931
bag1
(g2
(I0
tp2932
g4
tp2933
Rp2934
(I1
(I1
tp2935
g11
I00
S'u\xa6h?'
p2936
tp2937
bag1
(g2
(I0
tp2938
g4
tp2939
Rp2940
(I1
(I1
tp2941
g11
I00
S'u\xa6h?'
p2942
tp2943
bag1
(g2
(I0
tp2944
g4
tp2945
Rp2946
(I1
(I1
tp2947
g11
I00
S'u\xa6h?'
p2948
tp2949
bag1
(g2
(I0
tp2950
g4
tp2951
Rp2952
(I1
(I1
tp2953
g11
I00
S'u\xa6h?'
p2954
tp2955
bag1
(g2
(I0
tp2956
g4
tp2957
Rp2958
(I1
(I1
tp2959
g11
I00
S'u\xa6h?'
p2960
tp2961
bag1
(g2
(I0
tp2962
g4
tp2963
Rp2964
(I1
(I1
tp2965
g11
I00
S'u\xa6h?'
p2966
tp2967
bag1
(g2
(I0
tp2968
g4
tp2969
Rp2970
(I1
(I1
tp2971
g11
I00
S'v\xa6h?'
p2972
tp2973
bag1
(g2
(I0
tp2974
g4
tp2975
Rp2976
(I1
(I1
tp2977
g11
I00
S'v\xa6h?'
p2978
tp2979
bag1
(g2
(I0
tp2980
g4
tp2981
Rp2982
(I1
(I1
tp2983
g11
I00
S'v\xa6h?'
p2984
tp2985
bag1
(g2
(I0
tp2986
g4
tp2987
Rp2988
(I1
(I1
tp2989
g11
I00
S'v\xa6h?'
p2990
tp2991
bag1
(g2
(I0
tp2992
g4
tp2993
Rp2994
(I1
(I1
tp2995
g11
I00
S'x\xa6h?'
p2996
tp2997
bag1
(g2
(I0
tp2998
g4
tp2999
Rp3000
(I1
(I1
tp3001
g11
I00
S'x\xa6h?'
p3002
tp3003
bag1
(g2
(I0
tp3004
g4
tp3005
Rp3006
(I1
(I1
tp3007
g11
I00
S'x\xa6h?'
p3008
tp3009
bag1
(g2
(I0
tp3010
g4
tp3011
Rp3012
(I1
(I1
tp3013
g11
I00
S'x\xa6h?'
p3014
tp3015
bag1
(g2
(I0
tp3016
g4
tp3017
Rp3018
(I1
(I1
tp3019
g11
I00
S'x\xa6h?'
p3020
tp3021
bag1
(g2
(I0
tp3022
g4
tp3023
Rp3024
(I1
(I1
tp3025
g11
I00
S'x\xa6h?'
p3026
tp3027
bag1
(g2
(I0
tp3028
g4
tp3029
Rp3030
(I1
(I1
tp3031
g11
I00
S'x\xa6h?'
p3032
tp3033
bag1
(g2
(I0
tp3034
g4
tp3035
Rp3036
(I1
(I1
tp3037
g11
I00
S'x\xa6h?'
p3038
tp3039
bag1
(g2
(I0
tp3040
g4
tp3041
Rp3042
(I1
(I1
tp3043
g11
I00
S'x\xa6h?'
p3044
tp3045
bag1
(g2
(I0
tp3046
g4
tp3047
Rp3048
(I1
(I1
tp3049
g11
I00
S'x\xa6h?'
p3050
tp3051
bag1
(g2
(I0
tp3052
g4
tp3053
Rp3054
(I1
(I1
tp3055
g11
I00
S'x\xa6h?'
p3056
tp3057
bag1
(g2
(I0
tp3058
g4
tp3059
Rp3060
(I1
(I1
tp3061
g11
I00
S'x\xa6h?'
p3062
tp3063
bag1
(g2
(I0
tp3064
g4
tp3065
Rp3066
(I1
(I1
tp3067
g11
I00
S'x\xa6h?'
p3068
tp3069
bag1
(g2
(I0
tp3070
g4
tp3071
Rp3072
(I1
(I1
tp3073
g11
I00
S'x\xa6h?'
p3074
tp3075
bag1
(g2
(I0
tp3076
g4
tp3077
Rp3078
(I1
(I1
tp3079
g11
I00
S'{\xa6h?'
p3080
tp3081
bag1
(g2
(I0
tp3082
g4
tp3083
Rp3084
(I1
(I1
tp3085
g11
I00
S'{\xa6h?'
p3086
tp3087
bag1
(g2
(I0
tp3088
g4
tp3089
Rp3090
(I1
(I1
tp3091
g11
I00
S'{\xa6h?'
p3092
tp3093
bag1
(g2
(I0
tp3094
g4
tp3095
Rp3096
(I1
(I1
tp3097
g11
I00
S'{\xa6h?'
p3098
tp3099
bag1
(g2
(I0
tp3100
g4
tp3101
Rp3102
(I1
(I1
tp3103
g11
I00
S'{\xa6h?'
p3104
tp3105
bag1
(g2
(I0
tp3106
g4
tp3107
Rp3108
(I1
(I1
tp3109
g11
I00
S'}\xa6h?'
p3110
tp3111
bag1
(g2
(I0
tp3112
g4
tp3113
Rp3114
(I1
(I1
tp3115
g11
I00
S'}\xa6h?'
p3116
tp3117
bag1
(g2
(I0
tp3118
g4
tp3119
Rp3120
(I1
(I1
tp3121
g11
I00
S'}\xa6h?'
p3122
tp3123
bag1
(g2
(I0
tp3124
g4
tp3125
Rp3126
(I1
(I1
tp3127
g11
I00
S'}\xa6h?'
p3128
tp3129
bag1
(g2
(I0
tp3130
g4
tp3131
Rp3132
(I1
(I1
tp3133
g11
I00
S'}\xa6h?'
p3134
tp3135
bag1
(g2
(I0
tp3136
g4
tp3137
Rp3138
(I1
(I1
tp3139
g11
I00
S'}\xa6h?'
p3140
tp3141
bag1
(g2
(I0
tp3142
g4
tp3143
Rp3144
(I1
(I1
tp3145
g11
I00
S'}\xa6h?'
p3146
tp3147
bag1
(g2
(I0
tp3148
g4
tp3149
Rp3150
(I1
(I1
tp3151
g11
I00
S'}\xa6h?'
p3152
tp3153
bag1
(g2
(I0
tp3154
g4
tp3155
Rp3156
(I1
(I1
tp3157
g11
I00
S'\x7f\xa6h?'
p3158
tp3159
bag1
(g2
(I0
tp3160
g4
tp3161
Rp3162
(I1
(I1
tp3163
g11
I00
S'\x7f\xa6h?'
p3164
tp3165
bag1
(g2
(I0
tp3166
g4
tp3167
Rp3168
(I1
(I1
tp3169
g11
I00
S'\x7f\xa6h?'
p3170
tp3171
bag1
(g2
(I0
tp3172
g4
tp3173
Rp3174
(I1
(I1
tp3175
g11
I00
S'\x7f\xa6h?'
p3176
tp3177
bag1
(g2
(I0
tp3178
g4
tp3179
Rp3180
(I1
(I1
tp3181
g11
I00
S'\x7f\xa6h?'
p3182
tp3183
bag1
(g2
(I0
tp3184
g4
tp3185
Rp3186
(I1
(I1
tp3187
g11
I00
S'\x7f\xa6h?'
p3188
tp3189
bag1
(g2
(I0
tp3190
g4
tp3191
Rp3192
(I1
(I1
tp3193
g11
I00
S'\x7f\xa6h?'
p3194
tp3195
bag1
(g2
(I0
tp3196
g4
tp3197
Rp3198
(I1
(I1
tp3199
g11
I00
S'\x7f\xa6h?'
p3200
tp3201
bag1
(g2
(I0
tp3202
g4
tp3203
Rp3204
(I1
(I1
tp3205
g11
I00
S'\x7f\xa6h?'
p3206
tp3207
bag1
(g2
(I0
tp3208
g4
tp3209
Rp3210
(I1
(I1
tp3211
g11
I00
S'\x7f\xa6h?'
p3212
tp3213
bag1
(g2
(I0
tp3214
g4
tp3215
Rp3216
(I1
(I1
tp3217
g11
I00
S'\x7f\xa6h?'
p3218
tp3219
bag1
(g2
(I0
tp3220
g4
tp3221
Rp3222
(I1
(I1
tp3223
g11
I00
S'\x7f\xa6h?'
p3224
tp3225
bag1
(g2
(I0
tp3226
g4
tp3227
Rp3228
(I1
(I1
tp3229
g11
I00
S'\x7f\xa6h?'
p3230
tp3231
bag1
(g2
(I0
tp3232
g4
tp3233
Rp3234
(I1
(I1
tp3235
g11
I00
S'\x7f\xa6h?'
p3236
tp3237
bag1
(g2
(I0
tp3238
g4
tp3239
Rp3240
(I1
(I1
tp3241
g11
I00
S'\x7f\xa6h?'
p3242
tp3243
bag1
(g2
(I0
tp3244
g4
tp3245
Rp3246
(I1
(I1
tp3247
g11
I00
S'\x7f\xa6h?'
p3248
tp3249
bag1
(g2
(I0
tp3250
g4
tp3251
Rp3252
(I1
(I1
tp3253
g11
I00
S'\x7f\xa6h?'
p3254
tp3255
bag1
(g2
(I0
tp3256
g4
tp3257
Rp3258
(I1
(I1
tp3259
g11
I00
S'\x80\xa6h?'
p3260
tp3261
bag1
(g2
(I0
tp3262
g4
tp3263
Rp3264
(I1
(I1
tp3265
g11
I00
S'\x80\xa6h?'
p3266
tp3267
bag1
(g2
(I0
tp3268
g4
tp3269
Rp3270
(I1
(I1
tp3271
g11
I00
S'\x80\xa6h?'
p3272
tp3273
bag1
(g2
(I0
tp3274
g4
tp3275
Rp3276
(I1
(I1
tp3277
g11
I00
S'\x80\xa6h?'
p3278
tp3279
bag1
(g2
(I0
tp3280
g4
tp3281
Rp3282
(I1
(I1
tp3283
g11
I00
S'\x80\xa6h?'
p3284
tp3285
bag1
(g2
(I0
tp3286
g4
tp3287
Rp3288
(I1
(I1
tp3289
g11
I00
S'\x80\xa6h?'
p3290
tp3291
bag1
(g2
(I0
tp3292
g4
tp3293
Rp3294
(I1
(I1
tp3295
g11
I00
S'\x80\xa6h?'
p3296
tp3297
bag1
(g2
(I0
tp3298
g4
tp3299
Rp3300
(I1
(I1
tp3301
g11
I00
S'\x80\xa6h?'
p3302
tp3303
bag1
(g2
(I0
tp3304
g4
tp3305
Rp3306
(I1
(I1
tp3307
g11
I00
S'\x80\xa6h?'
p3308
tp3309
bag1
(g2
(I0
tp3310
g4
tp3311
Rp3312
(I1
(I1
tp3313
g11
I00
S'\x82\xa6h?'
p3314
tp3315
bag1
(g2
(I0
tp3316
g4
tp3317
Rp3318
(I1
(I1
tp3319
g11
I00
S'\x82\xa6h?'
p3320
tp3321
bag1
(g2
(I0
tp3322
g4
tp3323
Rp3324
(I1
(I1
tp3325
g11
I00
S'\x82\xa6h?'
p3326
tp3327
bag1
(g2
(I0
tp3328
g4
tp3329
Rp3330
(I1
(I1
tp3331
g11
I00
S'\x82\xa6h?'
p3332
tp3333
bag1
(g2
(I0
tp3334
g4
tp3335
Rp3336
(I1
(I1
tp3337
g11
I00
S'\x82\xa6h?'
p3338
tp3339
bag1
(g2
(I0
tp3340
g4
tp3341
Rp3342
(I1
(I1
tp3343
g11
I00
S'\x82\xa6h?'
p3344
tp3345
bag1
(g2
(I0
tp3346
g4
tp3347
Rp3348
(I1
(I1
tp3349
g11
I00
S'\x84\xa6h?'
p3350
tp3351
bag1
(g2
(I0
tp3352
g4
tp3353
Rp3354
(I1
(I1
tp3355
g11
I00
S'\x84\xa6h?'
p3356
tp3357
bag1
(g2
(I0
tp3358
g4
tp3359
Rp3360
(I1
(I1
tp3361
g11
I00
S'\x84\xa6h?'
p3362
tp3363
bag1
(g2
(I0
tp3364
g4
tp3365
Rp3366
(I1
(I1
tp3367
g11
I00
S'\x84\xa6h?'
p3368
tp3369
bag1
(g2
(I0
tp3370
g4
tp3371
Rp3372
(I1
(I1
tp3373
g11
I00
S'\x84\xa6h?'
p3374
tp3375
bag1
(g2
(I0
tp3376
g4
tp3377
Rp3378
(I1
(I1
tp3379
g11
I00
S'\x84\xa6h?'
p3380
tp3381
bag1
(g2
(I0
tp3382
g4
tp3383
Rp3384
(I1
(I1
tp3385
g11
I00
S'\x84\xa6h?'
p3386
tp3387
bag1
(g2
(I0
tp3388
g4
tp3389
Rp3390
(I1
(I1
tp3391
g11
I00
S'\x84\xa6h?'
p3392
tp3393
bag1
(g2
(I0
tp3394
g4
tp3395
Rp3396
(I1
(I1
tp3397
g11
I00
S'\x84\xa6h?'
p3398
tp3399
bag1
(g2
(I0
tp3400
g4
tp3401
Rp3402
(I1
(I1
tp3403
g11
I00
S'\x84\xa6h?'
p3404
tp3405
bag1
(g2
(I0
tp3406
g4
tp3407
Rp3408
(I1
(I1
tp3409
g11
I00
S'\x84\xa6h?'
p3410
tp3411
bag1
(g2
(I0
tp3412
g4
tp3413
Rp3414
(I1
(I1
tp3415
g11
I00
S'\x84\xa6h?'
p3416
tp3417
bag1
(g2
(I0
tp3418
g4
tp3419
Rp3420
(I1
(I1
tp3421
g11
I00
S'\x84\xa6h?'
p3422
tp3423
bag1
(g2
(I0
tp3424
g4
tp3425
Rp3426
(I1
(I1
tp3427
g11
I00
S'\x84\xa6h?'
p3428
tp3429
bag1
(g2
(I0
tp3430
g4
tp3431
Rp3432
(I1
(I1
tp3433
g11
I00
S'\x84\xa6h?'
p3434
tp3435
bag1
(g2
(I0
tp3436
g4
tp3437
Rp3438
(I1
(I1
tp3439
g11
I00
S'\x84\xa6h?'
p3440
tp3441
bag1
(g2
(I0
tp3442
g4
tp3443
Rp3444
(I1
(I1
tp3445
g11
I00
S'\x84\xa6h?'
p3446
tp3447
bag1
(g2
(I0
tp3448
g4
tp3449
Rp3450
(I1
(I1
tp3451
g11
I00
S'\x84\xa6h?'
p3452
tp3453
bag1
(g2
(I0
tp3454
g4
tp3455
Rp3456
(I1
(I1
tp3457
g11
I00
S'\x84\xa6h?'
p3458
tp3459
bag1
(g2
(I0
tp3460
g4
tp3461
Rp3462
(I1
(I1
tp3463
g11
I00
S'\x84\xa6h?'
p3464
tp3465
bag1
(g2
(I0
tp3466
g4
tp3467
Rp3468
(I1
(I1
tp3469
g11
I00
S'\x84\xa6h?'
p3470
tp3471
bag1
(g2
(I0
tp3472
g4
tp3473
Rp3474
(I1
(I1
tp3475
g11
I00
S'\x85\xa6h?'
p3476
tp3477
bag1
(g2
(I0
tp3478
g4
tp3479
Rp3480
(I1
(I1
tp3481
g11
I00
S'\x85\xa6h?'
p3482
tp3483
bag1
(g2
(I0
tp3484
g4
tp3485
Rp3486
(I1
(I1
tp3487
g11
I00
S'\x87\xa6h?'
p3488
tp3489
bag1
(g2
(I0
tp3490
g4
tp3491
Rp3492
(I1
(I1
tp3493
g11
I00
S'\x87\xa6h?'
p3494
tp3495
bag1
(g2
(I0
tp3496
g4
tp3497
Rp3498
(I1
(I1
tp3499
g11
I00
S'\x87\xa6h?'
p3500
tp3501
bag1
(g2
(I0
tp3502
g4
tp3503
Rp3504
(I1
(I1
tp3505
g11
I00
S'\x87\xa6h?'
p3506
tp3507
bag1
(g2
(I0
tp3508
g4
tp3509
Rp3510
(I1
(I1
tp3511
g11
I00
S'\x87\xa6h?'
p3512
tp3513
bag1
(g2
(I0
tp3514
g4
tp3515
Rp3516
(I1
(I1
tp3517
g11
I00
S'\x87\xa6h?'
p3518
tp3519
bag1
(g2
(I0
tp3520
g4
tp3521
Rp3522
(I1
(I1
tp3523
g11
I00
S'\x87\xa6h?'
p3524
tp3525
bag1
(g2
(I0
tp3526
g4
tp3527
Rp3528
(I1
(I1
tp3529
g11
I00
S'\x87\xa6h?'
p3530
tp3531
bag1
(g2
(I0
tp3532
g4
tp3533
Rp3534
(I1
(I1
tp3535
g11
I00
S'\x89\xa6h?'
p3536
tp3537
bag1
(g2
(I0
tp3538
g4
tp3539
Rp3540
(I1
(I1
tp3541
g11
I00
S'\x89\xa6h?'
p3542
tp3543
bag1
(g2
(I0
tp3544
g4
tp3545
Rp3546
(I1
(I1
tp3547
g11
I00
S'\x89\xa6h?'
p3548
tp3549
bag1
(g2
(I0
tp3550
g4
tp3551
Rp3552
(I1
(I1
tp3553
g11
I00
S'\x89\xa6h?'
p3554
tp3555
bag1
(g2
(I0
tp3556
g4
tp3557
Rp3558
(I1
(I1
tp3559
g11
I00
S'\x89\xa6h?'
p3560
tp3561
bag1
(g2
(I0
tp3562
g4
tp3563
Rp3564
(I1
(I1
tp3565
g11
I00
S'\x89\xa6h?'
p3566
tp3567
bag1
(g2
(I0
tp3568
g4
tp3569
Rp3570
(I1
(I1
tp3571
g11
I00
S'\x8a\xa6h?'
p3572
tp3573
bag1
(g2
(I0
tp3574
g4
tp3575
Rp3576
(I1
(I1
tp3577
g11
I00
S'\x8a\xa6h?'
p3578
tp3579
bag1
(g2
(I0
tp3580
g4
tp3581
Rp3582
(I1
(I1
tp3583
g11
I00
S'\x8a\xa6h?'
p3584
tp3585
bag1
(g2
(I0
tp3586
g4
tp3587
Rp3588
(I1
(I1
tp3589
g11
I00
S'\x8a\xa6h?'
p3590
tp3591
bag1
(g2
(I0
tp3592
g4
tp3593
Rp3594
(I1
(I1
tp3595
g11
I00
S'\x8a\xa6h?'
p3596
tp3597
bag1
(g2
(I0
tp3598
g4
tp3599
Rp3600
(I1
(I1
tp3601
g11
I00
S'\x8a\xa6h?'
p3602
tp3603
bag1
(g2
(I0
tp3604
g4
tp3605
Rp3606
(I1
(I1
tp3607
g11
I00
S'\x8a\xa6h?'
p3608
tp3609
bag1
(g2
(I0
tp3610
g4
tp3611
Rp3612
(I1
(I1
tp3613
g11
I00
S'\x8a\xa6h?'
p3614
tp3615
bag1
(g2
(I0
tp3616
g4
tp3617
Rp3618
(I1
(I1
tp3619
g11
I00
S'\x8a\xa6h?'
p3620
tp3621
bag1
(g2
(I0
tp3622
g4
tp3623
Rp3624
(I1
(I1
tp3625
g11
I00
S'\x8a\xa6h?'
p3626
tp3627
bag1
(g2
(I0
tp3628
g4
tp3629
Rp3630
(I1
(I1
tp3631
g11
I00
S'\x8a\xa6h?'
p3632
tp3633
bag1
(g2
(I0
tp3634
g4
tp3635
Rp3636
(I1
(I1
tp3637
g11
I00
S'\x8a\xa6h?'
p3638
tp3639
bag1
(g2
(I0
tp3640
g4
tp3641
Rp3642
(I1
(I1
tp3643
g11
I00
S'\x8a\xa6h?'
p3644
tp3645
bag1
(g2
(I0
tp3646
g4
tp3647
Rp3648
(I1
(I1
tp3649
g11
I00
S'\x8c\xa6h?'
p3650
tp3651
bag1
(g2
(I0
tp3652
g4
tp3653
Rp3654
(I1
(I1
tp3655
g11
I00
S'\x8c\xa6h?'
p3656
tp3657
bag1
(g2
(I0
tp3658
g4
tp3659
Rp3660
(I1
(I1
tp3661
g11
I00
S'\x8c\xa6h?'
p3662
tp3663
bag1
(g2
(I0
tp3664
g4
tp3665
Rp3666
(I1
(I1
tp3667
g11
I00
S'\x8c\xa6h?'
p3668
tp3669
bag1
(g2
(I0
tp3670
g4
tp3671
Rp3672
(I1
(I1
tp3673
g11
I00
S'\x8c\xa6h?'
p3674
tp3675
bag1
(g2
(I0
tp3676
g4
tp3677
Rp3678
(I1
(I1
tp3679
g11
I00
S'\x8c\xa6h?'
p3680
tp3681
bag1
(g2
(I0
tp3682
g4
tp3683
Rp3684
(I1
(I1
tp3685
g11
I00
S'\x8c\xa6h?'
p3686
tp3687
bag1
(g2
(I0
tp3688
g4
tp3689
Rp3690
(I1
(I1
tp3691
g11
I00
S'\x8c\xa6h?'
p3692
tp3693
bag1
(g2
(I0
tp3694
g4
tp3695
Rp3696
(I1
(I1
tp3697
g11
I00
S'\x8c\xa6h?'
p3698
tp3699
bag1
(g2
(I0
tp3700
g4
tp3701
Rp3702
(I1
(I1
tp3703
g11
I00
S'\x8c\xa6h?'
p3704
tp3705
bag1
(g2
(I0
tp3706
g4
tp3707
Rp3708
(I1
(I1
tp3709
g11
I00
S'\x8e\xa6h?'
p3710
tp3711
bag1
(g2
(I0
tp3712
g4
tp3713
Rp3714
(I1
(I1
tp3715
g11
I00
S'\x8e\xa6h?'
p3716
tp3717
bag1
(g2
(I0
tp3718
g4
tp3719
Rp3720
(I1
(I1
tp3721
g11
I00
S'\x8e\xa6h?'
p3722
tp3723
bag1
(g2
(I0
tp3724
g4
tp3725
Rp3726
(I1
(I1
tp3727
g11
I00
S'\x8e\xa6h?'
p3728
tp3729
bag1
(g2
(I0
tp3730
g4
tp3731
Rp3732
(I1
(I1
tp3733
g11
I00
S'\x8f\xa6h?'
p3734
tp3735
bag1
(g2
(I0
tp3736
g4
tp3737
Rp3738
(I1
(I1
tp3739
g11
I00
S'\x8f\xa6h?'
p3740
tp3741
bag1
(g2
(I0
tp3742
g4
tp3743
Rp3744
(I1
(I1
tp3745
g11
I00
S'\x8f\xa6h?'
p3746
tp3747
bag1
(g2
(I0
tp3748
g4
tp3749
Rp3750
(I1
(I1
tp3751
g11
I00
S'\x8f\xa6h?'
p3752
tp3753
bag1
(g2
(I0
tp3754
g4
tp3755
Rp3756
(I1
(I1
tp3757
g11
I00
S'\x8f\xa6h?'
p3758
tp3759
bag1
(g2
(I0
tp3760
g4
tp3761
Rp3762
(I1
(I1
tp3763
g11
I00
S'\x8f\xa6h?'
p3764
tp3765
bag1
(g2
(I0
tp3766
g4
tp3767
Rp3768
(I1
(I1
tp3769
g11
I00
S'\x8f\xa6h?'
p3770
tp3771
bag1
(g2
(I0
tp3772
g4
tp3773
Rp3774
(I1
(I1
tp3775
g11
I00
S'\x8f\xa6h?'
p3776
tp3777
bag1
(g2
(I0
tp3778
g4
tp3779
Rp3780
(I1
(I1
tp3781
g11
I00
S'\x8f\xa6h?'
p3782
tp3783
bag1
(g2
(I0
tp3784
g4
tp3785
Rp3786
(I1
(I1
tp3787
g11
I00
S'\x8f\xa6h?'
p3788
tp3789
bag1
(g2
(I0
tp3790
g4
tp3791
Rp3792
(I1
(I1
tp3793
g11
I00
S'\x8f\xa6h?'
p3794
tp3795
bag1
(g2
(I0
tp3796
g4
tp3797
Rp3798
(I1
(I1
tp3799
g11
I00
S'\x8f\xa6h?'
p3800
tp3801
bag1
(g2
(I0
tp3802
g4
tp3803
Rp3804
(I1
(I1
tp3805
g11
I00
S'\x8f\xa6h?'
p3806
tp3807
bag1
(g2
(I0
tp3808
g4
tp3809
Rp3810
(I1
(I1
tp3811
g11
I00
S'\x8f\xa6h?'
p3812
tp3813
bag1
(g2
(I0
tp3814
g4
tp3815
Rp3816
(I1
(I1
tp3817
g11
I00
S'\x8f\xa6h?'
p3818
tp3819
bag1
(g2
(I0
tp3820
g4
tp3821
Rp3822
(I1
(I1
tp3823
g11
I00
S'\x8f\xa6h?'
p3824
tp3825
bag1
(g2
(I0
tp3826
g4
tp3827
Rp3828
(I1
(I1
tp3829
g11
I00
S'\x8f\xa6h?'
p3830
tp3831
bag1
(g2
(I0
tp3832
g4
tp3833
Rp3834
(I1
(I1
tp3835
g11
I00
S'\x91\xa6h?'
p3836
tp3837
bag1
(g2
(I0
tp3838
g4
tp3839
Rp3840
(I1
(I1
tp3841
g11
I00
S'\x91\xa6h?'
p3842
tp3843
bag1
(g2
(I0
tp3844
g4
tp3845
Rp3846
(I1
(I1
tp3847
g11
I00
S'\x91\xa6h?'
p3848
tp3849
bag1
(g2
(I0
tp3850
g4
tp3851
Rp3852
(I1
(I1
tp3853
g11
I00
S'\x91\xa6h?'
p3854
tp3855
bag1
(g2
(I0
tp3856
g4
tp3857
Rp3858
(I1
(I1
tp3859
g11
I00
S'\x91\xa6h?'
p3860
tp3861
bag1
(g2
(I0
tp3862
g4
tp3863
Rp3864
(I1
(I1
tp3865
g11
I00
S'\x91\xa6h?'
p3866
tp3867
bag1
(g2
(I0
tp3868
g4
tp3869
Rp3870
(I1
(I1
tp3871
g11
I00
S'\x93\xa6h?'
p3872
tp3873
bag1
(g2
(I0
tp3874
g4
tp3875
Rp3876
(I1
(I1
tp3877
g11
I00
S'\x93\xa6h?'
p3878
tp3879
bag1
(g2
(I0
tp3880
g4
tp3881
Rp3882
(I1
(I1
tp3883
g11
I00
S'\x93\xa6h?'
p3884
tp3885
bag1
(g2
(I0
tp3886
g4
tp3887
Rp3888
(I1
(I1
tp3889
g11
I00
S'\x93\xa6h?'
p3890
tp3891
bag1
(g2
(I0
tp3892
g4
tp3893
Rp3894
(I1
(I1
tp3895
g11
I00
S'\x93\xa6h?'
p3896
tp3897
bag1
(g2
(I0
tp3898
g4
tp3899
Rp3900
(I1
(I1
tp3901
g11
I00
S'\x93\xa6h?'
p3902
tp3903
bag1
(g2
(I0
tp3904
g4
tp3905
Rp3906
(I1
(I1
tp3907
g11
I00
S'\x93\xa6h?'
p3908
tp3909
bag1
(g2
(I0
tp3910
g4
tp3911
Rp3912
(I1
(I1
tp3913
g11
I00
S'\x93\xa6h?'
p3914
tp3915
bag1
(g2
(I0
tp3916
g4
tp3917
Rp3918
(I1
(I1
tp3919
g11
I00
S'\x93\xa6h?'
p3920
tp3921
bag1
(g2
(I0
tp3922
g4
tp3923
Rp3924
(I1
(I1
tp3925
g11
I00
S'\x93\xa6h?'
p3926
tp3927
bag1
(g2
(I0
tp3928
g4
tp3929
Rp3930
(I1
(I1
tp3931
g11
I00
S'\x93\xa6h?'
p3932
tp3933
bag1
(g2
(I0
tp3934
g4
tp3935
Rp3936
(I1
(I1
tp3937
g11
I00
S'\x93\xa6h?'
p3938
tp3939
bag1
(g2
(I0
tp3940
g4
tp3941
Rp3942
(I1
(I1
tp3943
g11
I00
S'\x93\xa6h?'
p3944
tp3945
bag1
(g2
(I0
tp3946
g4
tp3947
Rp3948
(I1
(I1
tp3949
g11
I00
S'\x93\xa6h?'
p3950
tp3951
bag1
(g2
(I0
tp3952
g4
tp3953
Rp3954
(I1
(I1
tp3955
g11
I00
S'\x93\xa6h?'
p3956
tp3957
bag1
(g2
(I0
tp3958
g4
tp3959
Rp3960
(I1
(I1
tp3961
g11
I00
S'\x94\xa6h?'
p3962
tp3963
bag1
(g2
(I0
tp3964
g4
tp3965
Rp3966
(I1
(I1
tp3967
g11
I00
S'\x94\xa6h?'
p3968
tp3969
bag1
(g2
(I0
tp3970
g4
tp3971
Rp3972
(I1
(I1
tp3973
g11
I00
S'\x94\xa6h?'
p3974
tp3975
bag1
(g2
(I0
tp3976
g4
tp3977
Rp3978
(I1
(I1
tp3979
g11
I00
S'\x94\xa6h?'
p3980
tp3981
bag1
(g2
(I0
tp3982
g4
tp3983
Rp3984
(I1
(I1
tp3985
g11
I00
S'\x94\xa6h?'
p3986
tp3987
bag1
(g2
(I0
tp3988
g4
tp3989
Rp3990
(I1
(I1
tp3991
g11
I00
S'\x94\xa6h?'
p3992
tp3993
bag1
(g2
(I0
tp3994
g4
tp3995
Rp3996
(I1
(I1
tp3997
g11
I00
S'\x94\xa6h?'
p3998
tp3999
bag1
(g2
(I0
tp4000
g4
tp4001
Rp4002
(I1
(I1
tp4003
g11
I00
S'\x94\xa6h?'
p4004
tp4005
bag1
(g2
(I0
tp4006
g4
tp4007
Rp4008
(I1
(I1
tp4009
g11
I00
S'\x94\xa6h?'
p4010
tp4011
bag1
(g2
(I0
tp4012
g4
tp4013
Rp4014
(I1
(I1
tp4015
g11
I00
S'\x94\xa6h?'
p4016
tp4017
bag1
(g2
(I0
tp4018
g4
tp4019
Rp4020
(I1
(I1
tp4021
g11
I00
S'\x96\xa6h?'
p4022
tp4023
bag1
(g2
(I0
tp4024
g4
tp4025
Rp4026
(I1
(I1
tp4027
g11
I00
S'\x96\xa6h?'
p4028
tp4029
bag1
(g2
(I0
tp4030
g4
tp4031
Rp4032
(I1
(I1
tp4033
g11
I00
S'\x98\xa6h?'
p4034
tp4035
bag1
(g2
(I0
tp4036
g4
tp4037
Rp4038
(I1
(I1
tp4039
g11
I00
S'\x98\xa6h?'
p4040
tp4041
bag1
(g2
(I0
tp4042
g4
tp4043
Rp4044
(I1
(I1
tp4045
g11
I00
S'\x98\xa6h?'
p4046
tp4047
bag1
(g2
(I0
tp4048
g4
tp4049
Rp4050
(I1
(I1
tp4051
g11
I00
S'\x98\xa6h?'
p4052
tp4053
bag1
(g2
(I0
tp4054
g4
tp4055
Rp4056
(I1
(I1
tp4057
g11
I00
S'\x98\xa6h?'
p4058
tp4059
bag1
(g2
(I0
tp4060
g4
tp4061
Rp4062
(I1
(I1
tp4063
g11
I00
S'\x98\xa6h?'
p4064
tp4065
bag1
(g2
(I0
tp4066
g4
tp4067
Rp4068
(I1
(I1
tp4069
g11
I00
S'\x98\xa6h?'
p4070
tp4071
bag1
(g2
(I0
tp4072
g4
tp4073
Rp4074
(I1
(I1
tp4075
g11
I00
S'\x98\xa6h?'
p4076
tp4077
bag1
(g2
(I0
tp4078
g4
tp4079
Rp4080
(I1
(I1
tp4081
g11
I00
S'\x98\xa6h?'
p4082
tp4083
bag1
(g2
(I0
tp4084
g4
tp4085
Rp4086
(I1
(I1
tp4087
g11
I00
S'\x98\xa6h?'
p4088
tp4089
bag1
(g2
(I0
tp4090
g4
tp4091
Rp4092
(I1
(I1
tp4093
g11
I00
S'\x98\xa6h?'
p4094
tp4095
bag1
(g2
(I0
tp4096
g4
tp4097
Rp4098
(I1
(I1
tp4099
g11
I00
S'\x98\xa6h?'
p4100
tp4101
bag1
(g2
(I0
tp4102
g4
tp4103
Rp4104
(I1
(I1
tp4105
g11
I00
S'\x98\xa6h?'
p4106
tp4107
bag1
(g2
(I0
tp4108
g4
tp4109
Rp4110
(I1
(I1
tp4111
g11
I00
S'\x98\xa6h?'
p4112
tp4113
bag1
(g2
(I0
tp4114
g4
tp4115
Rp4116
(I1
(I1
tp4117
g11
I00
S'\x98\xa6h?'
p4118
tp4119
bag1
(g2
(I0
tp4120
g4
tp4121
Rp4122
(I1
(I1
tp4123
g11
I00
S'\x98\xa6h?'
p4124
tp4125
bag1
(g2
(I0
tp4126
g4
tp4127
Rp4128
(I1
(I1
tp4129
g11
I00
S'\x99\xa6h?'
p4130
tp4131
bag1
(g2
(I0
tp4132
g4
tp4133
Rp4134
(I1
(I1
tp4135
g11
I00
S'\x99\xa6h?'
p4136
tp4137
bag1
(g2
(I0
tp4138
g4
tp4139
Rp4140
(I1
(I1
tp4141
g11
I00
S'\x99\xa6h?'
p4142
tp4143
bag1
(g2
(I0
tp4144
g4
tp4145
Rp4146
(I1
(I1
tp4147
g11
I00
S'\x99\xa6h?'
p4148
tp4149
bag1
(g2
(I0
tp4150
g4
tp4151
Rp4152
(I1
(I1
tp4153
g11
I00
S'\x99\xa6h?'
p4154
tp4155
bag1
(g2
(I0
tp4156
g4
tp4157
Rp4158
(I1
(I1
tp4159
g11
I00
S'\x99\xa6h?'
p4160
tp4161
bag1
(g2
(I0
tp4162
g4
tp4163
Rp4164
(I1
(I1
tp4165
g11
I00
S'\x99\xa6h?'
p4166
tp4167
bag1
(g2
(I0
tp4168
g4
tp4169
Rp4170
(I1
(I1
tp4171
g11
I00
S'\x99\xa6h?'
p4172
tp4173
bag1
(g2
(I0
tp4174
g4
tp4175
Rp4176
(I1
(I1
tp4177
g11
I00
S'\x99\xa6h?'
p4178
tp4179
bag1
(g2
(I0
tp4180
g4
tp4181
Rp4182
(I1
(I1
tp4183
g11
I00
S'\x99\xa6h?'
p4184
tp4185
bag1
(g2
(I0
tp4186
g4
tp4187
Rp4188
(I1
(I1
tp4189
g11
I00
S'\x99\xa6h?'
p4190
tp4191
bag1
(g2
(I0
tp4192
g4
tp4193
Rp4194
(I1
(I1
tp4195
g11
I00
S'\x99\xa6h?'
p4196
tp4197
bag1
(g2
(I0
tp4198
g4
tp4199
Rp4200
(I1
(I1
tp4201
g11
I00
S'\x99\xa6h?'
p4202
tp4203
bag1
(g2
(I0
tp4204
g4
tp4205
Rp4206
(I1
(I1
tp4207
g11
I00
S'\x99\xa6h?'
p4208
tp4209
bag1
(g2
(I0
tp4210
g4
tp4211
Rp4212
(I1
(I1
tp4213
g11
I00
S'\x99\xa6h?'
p4214
tp4215
bag1
(g2
(I0
tp4216
g4
tp4217
Rp4218
(I1
(I1
tp4219
g11
I00
S'\x99\xa6h?'
p4220
tp4221
bag1
(g2
(I0
tp4222
g4
tp4223
Rp4224
(I1
(I1
tp4225
g11
I00
S'\x99\xa6h?'
p4226
tp4227
bag1
(g2
(I0
tp4228
g4
tp4229
Rp4230
(I1
(I1
tp4231
g11
I00
S'\x99\xa6h?'
p4232
tp4233
bag1
(g2
(I0
tp4234
g4
tp4235
Rp4236
(I1
(I1
tp4237
g11
I00
S'\x99\xa6h?'
p4238
tp4239
bag1
(g2
(I0
tp4240
g4
tp4241
Rp4242
(I1
(I1
tp4243
g11
I00
S'\x99\xa6h?'
p4244
tp4245
bag1
(g2
(I0
tp4246
g4
tp4247
Rp4248
(I1
(I1
tp4249
g11
I00
S'\x99\xa6h?'
p4250
tp4251
bag1
(g2
(I0
tp4252
g4
tp4253
Rp4254
(I1
(I1
tp4255
g11
I00
S'\x99\xa6h?'
p4256
tp4257
bag1
(g2
(I0
tp4258
g4
tp4259
Rp4260
(I1
(I1
tp4261
g11
I00
S'\x99\xa6h?'
p4262
tp4263
bag1
(g2
(I0
tp4264
g4
tp4265
Rp4266
(I1
(I1
tp4267
g11
I00
S'\x99\xa6h?'
p4268
tp4269
bag1
(g2
(I0
tp4270
g4
tp4271
Rp4272
(I1
(I1
tp4273
g11
I00
S'\x99\xa6h?'
p4274
tp4275
bag1
(g2
(I0
tp4276
g4
tp4277
Rp4278
(I1
(I1
tp4279
g11
I00
S'\x99\xa6h?'
p4280
tp4281
bag1
(g2
(I0
tp4282
g4
tp4283
Rp4284
(I1
(I1
tp4285
g11
I00
S'\x99\xa6h?'
p4286
tp4287
bag1
(g2
(I0
tp4288
g4
tp4289
Rp4290
(I1
(I1
tp4291
g11
I00
S'\x99\xa6h?'
p4292
tp4293
bag1
(g2
(I0
tp4294
g4
tp4295
Rp4296
(I1
(I1
tp4297
g11
I00
S'\x99\xa6h?'
p4298
tp4299
bag1
(g2
(I0
tp4300
g4
tp4301
Rp4302
(I1
(I1
tp4303
g11
I00
S'\x99\xa6h?'
p4304
tp4305
bag1
(g2
(I0
tp4306
g4
tp4307
Rp4308
(I1
(I1
tp4309
g11
I00
S'\x99\xa6h?'
p4310
tp4311
bag1
(g2
(I0
tp4312
g4
tp4313
Rp4314
(I1
(I1
tp4315
g11
I00
S'\x9b\xa6h?'
p4316
tp4317
bag1
(g2
(I0
tp4318
g4
tp4319
Rp4320
(I1
(I1
tp4321
g11
I00
S'\x9b\xa6h?'
p4322
tp4323
bag1
(g2
(I0
tp4324
g4
tp4325
Rp4326
(I1
(I1
tp4327
g11
I00
S'\x9b\xa6h?'
p4328
tp4329
bag1
(g2
(I0
tp4330
g4
tp4331
Rp4332
(I1
(I1
tp4333
g11
I00
S'\x9b\xa6h?'
p4334
tp4335
bag1
(g2
(I0
tp4336
g4
tp4337
Rp4338
(I1
(I1
tp4339
g11
I00
S'\x9b\xa6h?'
p4340
tp4341
bag1
(g2
(I0
tp4342
g4
tp4343
Rp4344
(I1
(I1
tp4345
g11
I00
S'\x9b\xa6h?'
p4346
tp4347
bag1
(g2
(I0
tp4348
g4
tp4349
Rp4350
(I1
(I1
tp4351
g11
I00
S'\x9b\xa6h?'
p4352
tp4353
bag1
(g2
(I0
tp4354
g4
tp4355
Rp4356
(I1
(I1
tp4357
g11
I00
S'\x9b\xa6h?'
p4358
tp4359
bag1
(g2
(I0
tp4360
g4
tp4361
Rp4362
(I1
(I1
tp4363
g11
I00
S'\x9b\xa6h?'
p4364
tp4365
bag1
(g2
(I0
tp4366
g4
tp4367
Rp4368
(I1
(I1
tp4369
g11
I00
S'\x9b\xa6h?'
p4370
tp4371
bag1
(g2
(I0
tp4372
g4
tp4373
Rp4374
(I1
(I1
tp4375
g11
I00
S'\x9b\xa6h?'
p4376
tp4377
bag1
(g2
(I0
tp4378
g4
tp4379
Rp4380
(I1
(I1
tp4381
g11
I00
S'\x9b\xa6h?'
p4382
tp4383
bag1
(g2
(I0
tp4384
g4
tp4385
Rp4386
(I1
(I1
tp4387
g11
I00
S'\x9b\xa6h?'
p4388
tp4389
bag1
(g2
(I0
tp4390
g4
tp4391
Rp4392
(I1
(I1
tp4393
g11
I00
S'\x9d\xa6h?'
p4394
tp4395
bag1
(g2
(I0
tp4396
g4
tp4397
Rp4398
(I1
(I1
tp4399
g11
I00
S'\x9d\xa6h?'
p4400
tp4401
bag1
(g2
(I0
tp4402
g4
tp4403
Rp4404
(I1
(I1
tp4405
g11
I00
S'\x9d\xa6h?'
p4406
tp4407
bag1
(g2
(I0
tp4408
g4
tp4409
Rp4410
(I1
(I1
tp4411
g11
I00
S'\x9d\xa6h?'
p4412
tp4413
bag1
(g2
(I0
tp4414
g4
tp4415
Rp4416
(I1
(I1
tp4417
g11
I00
S'\x9d\xa6h?'
p4418
tp4419
bag1
(g2
(I0
tp4420
g4
tp4421
Rp4422
(I1
(I1
tp4423
g11
I00
S'\x9d\xa6h?'
p4424
tp4425
bag1
(g2
(I0
tp4426
g4
tp4427
Rp4428
(I1
(I1
tp4429
g11
I00
S'\x9d\xa6h?'
p4430
tp4431
bag1
(g2
(I0
tp4432
g4
tp4433
Rp4434
(I1
(I1
tp4435
g11
I00
S'\x9d\xa6h?'
p4436
tp4437
bag1
(g2
(I0
tp4438
g4
tp4439
Rp4440
(I1
(I1
tp4441
g11
I00
S'\x9d\xa6h?'
p4442
tp4443
bag1
(g2
(I0
tp4444
g4
tp4445
Rp4446
(I1
(I1
tp4447
g11
I00
S'\x9d\xa6h?'
p4448
tp4449
bag1
(g2
(I0
tp4450
g4
tp4451
Rp4452
(I1
(I1
tp4453
g11
I00
S'\x9d\xa6h?'
p4454
tp4455
bag1
(g2
(I0
tp4456
g4
tp4457
Rp4458
(I1
(I1
tp4459
g11
I00
S'\x9d\xa6h?'
p4460
tp4461
bag1
(g2
(I0
tp4462
g4
tp4463
Rp4464
(I1
(I1
tp4465
g11
I00
S'\x9d\xa6h?'
p4466
tp4467
bag1
(g2
(I0
tp4468
g4
tp4469
Rp4470
(I1
(I1
tp4471
g11
I00
S'\x9e\xa6h?'
p4472
tp4473
bag1
(g2
(I0
tp4474
g4
tp4475
Rp4476
(I1
(I1
tp4477
g11
I00
S'\x9e\xa6h?'
p4478
tp4479
bag1
(g2
(I0
tp4480
g4
tp4481
Rp4482
(I1
(I1
tp4483
g11
I00
S'\xa0\xa6h?'
p4484
tp4485
bag1
(g2
(I0
tp4486
g4
tp4487
Rp4488
(I1
(I1
tp4489
g11
I00
S'\xa0\xa6h?'
p4490
tp4491
bag1
(g2
(I0
tp4492
g4
tp4493
Rp4494
(I1
(I1
tp4495
g11
I00
S'\xa0\xa6h?'
p4496
tp4497
bag1
(g2
(I0
tp4498
g4
tp4499
Rp4500
(I1
(I1
tp4501
g11
I00
S'\xa0\xa6h?'
p4502
tp4503
bag1
(g2
(I0
tp4504
g4
tp4505
Rp4506
(I1
(I1
tp4507
g11
I00
S'\xa0\xa6h?'
p4508
tp4509
bag1
(g2
(I0
tp4510
g4
tp4511
Rp4512
(I1
(I1
tp4513
g11
I00
S'\xa0\xa6h?'
p4514
tp4515
bag1
(g2
(I0
tp4516
g4
tp4517
Rp4518
(I1
(I1
tp4519
g11
I00
S'\xa0\xa6h?'
p4520
tp4521
bag1
(g2
(I0
tp4522
g4
tp4523
Rp4524
(I1
(I1
tp4525
g11
I00
S'\xa0\xa6h?'
p4526
tp4527
bag1
(g2
(I0
tp4528
g4
tp4529
Rp4530
(I1
(I1
tp4531
g11
I00
S'\xa0\xa6h?'
p4532
tp4533
bag1
(g2
(I0
tp4534
g4
tp4535
Rp4536
(I1
(I1
tp4537
g11
I00
S'\xa0\xa6h?'
p4538
tp4539
bag1
(g2
(I0
tp4540
g4
tp4541
Rp4542
(I1
(I1
tp4543
g11
I00
S'\xa0\xa6h?'
p4544
tp4545
bag1
(g2
(I0
tp4546
g4
tp4547
Rp4548
(I1
(I1
tp4549
g11
I00
S'\xa0\xa6h?'
p4550
tp4551
bag1
(g2
(I0
tp4552
g4
tp4553
Rp4554
(I1
(I1
tp4555
g11
I00
S'\xa0\xa6h?'
p4556
tp4557
bag1
(g2
(I0
tp4558
g4
tp4559
Rp4560
(I1
(I1
tp4561
g11
I00
S'\xa0\xa6h?'
p4562
tp4563
bag1
(g2
(I0
tp4564
g4
tp4565
Rp4566
(I1
(I1
tp4567
g11
I00
S'\xa0\xa6h?'
p4568
tp4569
bag1
(g2
(I0
tp4570
g4
tp4571
Rp4572
(I1
(I1
tp4573
g11
I00
S'\xa0\xa6h?'
p4574
tp4575
bag1
(g2
(I0
tp4576
g4
tp4577
Rp4578
(I1
(I1
tp4579
g11
I00
S'\xa0\xa6h?'
p4580
tp4581
bag1
(g2
(I0
tp4582
g4
tp4583
Rp4584
(I1
(I1
tp4585
g11
I00
S'\xa0\xa6h?'
p4586
tp4587
bag1
(g2
(I0
tp4588
g4
tp4589
Rp4590
(I1
(I1
tp4591
g11
I00
S'\xa0\xa6h?'
p4592
tp4593
bag1
(g2
(I0
tp4594
g4
tp4595
Rp4596
(I1
(I1
tp4597
g11
I00
S'\xa0\xa6h?'
p4598
tp4599
bag1
(g2
(I0
tp4600
g4
tp4601
Rp4602
(I1
(I1
tp4603
g11
I00
S'\xa0\xa6h?'
p4604
tp4605
bag1
(g2
(I0
tp4606
g4
tp4607
Rp4608
(I1
(I1
tp4609
g11
I00
S'\xa0\xa6h?'
p4610
tp4611
bag1
(g2
(I0
tp4612
g4
tp4613
Rp4614
(I1
(I1
tp4615
g11
I00
S'\xa0\xa6h?'
p4616
tp4617
bag1
(g2
(I0
tp4618
g4
tp4619
Rp4620
(I1
(I1
tp4621
g11
I00
S'\xa0\xa6h?'
p4622
tp4623
bag1
(g2
(I0
tp4624
g4
tp4625
Rp4626
(I1
(I1
tp4627
g11
I00
S'\xa0\xa6h?'
p4628
tp4629
bag1
(g2
(I0
tp4630
g4
tp4631
Rp4632
(I1
(I1
tp4633
g11
I00
S'\xa0\xa6h?'
p4634
tp4635
bag1
(g2
(I0
tp4636
g4
tp4637
Rp4638
(I1
(I1
tp4639
g11
I00
S'\xa0\xa6h?'
p4640
tp4641
bag1
(g2
(I0
tp4642
g4
tp4643
Rp4644
(I1
(I1
tp4645
g11
I00
S'\xa0\xa6h?'
p4646
tp4647
bag1
(g2
(I0
tp4648
g4
tp4649
Rp4650
(I1
(I1
tp4651
g11
I00
S'\xa0\xa6h?'
p4652
tp4653
bag1
(g2
(I0
tp4654
g4
tp4655
Rp4656
(I1
(I1
tp4657
g11
I00
S'\xa0\xa6h?'
p4658
tp4659
bag1
(g2
(I0
tp4660
g4
tp4661
Rp4662
(I1
(I1
tp4663
g11
I00
S'\xa0\xa6h?'
p4664
tp4665
bag1
(g2
(I0
tp4666
g4
tp4667
Rp4668
(I1
(I1
tp4669
g11
I00
S'\xa0\xa6h?'
p4670
tp4671
bag1
(g2
(I0
tp4672
g4
tp4673
Rp4674
(I1
(I1
tp4675
g11
I00
S'\xa0\xa6h?'
p4676
tp4677
bag1
(g2
(I0
tp4678
g4
tp4679
Rp4680
(I1
(I1
tp4681
g11
I00
S'\xa0\xa6h?'
p4682
tp4683
bag1
(g2
(I0
tp4684
g4
tp4685
Rp4686
(I1
(I1
tp4687
g11
I00
S'\xa0\xa6h?'
p4688
tp4689
bag1
(g2
(I0
tp4690
g4
tp4691
Rp4692
(I1
(I1
tp4693
g11
I00
S'\xa0\xa6h?'
p4694
tp4695
bag1
(g2
(I0
tp4696
g4
tp4697
Rp4698
(I1
(I1
tp4699
g11
I00
S'\xa0\xa6h?'
p4700
tp4701
bag1
(g2
(I0
tp4702
g4
tp4703
Rp4704
(I1
(I1
tp4705
g11
I00
S'\xa0\xa6h?'
p4706
tp4707
bag1
(g2
(I0
tp4708
g4
tp4709
Rp4710
(I1
(I1
tp4711
g11
I00
S'\xa0\xa6h?'
p4712
tp4713
bag1
(g2
(I0
tp4714
g4
tp4715
Rp4716
(I1
(I1
tp4717
g11
I00
S'\xa2\xa6h?'
p4718
tp4719
bag1
(g2
(I0
tp4720
g4
tp4721
Rp4722
(I1
(I1
tp4723
g11
I00
S'\xa2\xa6h?'
p4724
tp4725
bag1
(g2
(I0
tp4726
g4
tp4727
Rp4728
(I1
(I1
tp4729
g11
I00
S'\xa2\xa6h?'
p4730
tp4731
bag1
(g2
(I0
tp4732
g4
tp4733
Rp4734
(I1
(I1
tp4735
g11
I00
S'\xa2\xa6h?'
p4736
tp4737
bag1
(g2
(I0
tp4738
g4
tp4739
Rp4740
(I1
(I1
tp4741
g11
I00
S'\xa2\xa6h?'
p4742
tp4743
bag1
(g2
(I0
tp4744
g4
tp4745
Rp4746
(I1
(I1
tp4747
g11
I00
S'\xa2\xa6h?'
p4748
tp4749
bag1
(g2
(I0
tp4750
g4
tp4751
Rp4752
(I1
(I1
tp4753
g11
I00
S'\xa2\xa6h?'
p4754
tp4755
bag1
(g2
(I0
tp4756
g4
tp4757
Rp4758
(I1
(I1
tp4759
g11
I00
S'\xa2\xa6h?'
p4760
tp4761
bag1
(g2
(I0
tp4762
g4
tp4763
Rp4764
(I1
(I1
tp4765
g11
I00
S'\xa2\xa6h?'
p4766
tp4767
bag1
(g2
(I0
tp4768
g4
tp4769
Rp4770
(I1
(I1
tp4771
g11
I00
S'\xa2\xa6h?'
p4772
tp4773
bag1
(g2
(I0
tp4774
g4
tp4775
Rp4776
(I1
(I1
tp4777
g11
I00
S'\xa2\xa6h?'
p4778
tp4779
bag1
(g2
(I0
tp4780
g4
tp4781
Rp4782
(I1
(I1
tp4783
g11
I00
S'\xa2\xa6h?'
p4784
tp4785
bag1
(g2
(I0
tp4786
g4
tp4787
Rp4788
(I1
(I1
tp4789
g11
I00
S'\xa3\xa6h?'
p4790
tp4791
bag1
(g2
(I0
tp4792
g4
tp4793
Rp4794
(I1
(I1
tp4795
g11
I00
S'\xa3\xa6h?'
p4796
tp4797
bag1
(g2
(I0
tp4798
g4
tp4799
Rp4800
(I1
(I1
tp4801
g11
I00
S'\xa3\xa6h?'
p4802
tp4803
bag1
(g2
(I0
tp4804
g4
tp4805
Rp4806
(I1
(I1
tp4807
g11
I00
S'\xa3\xa6h?'
p4808
tp4809
bag1
(g2
(I0
tp4810
g4
tp4811
Rp4812
(I1
(I1
tp4813
g11
I00
S'\xa3\xa6h?'
p4814
tp4815
bag1
(g2
(I0
tp4816
g4
tp4817
Rp4818
(I1
(I1
tp4819
g11
I00
S'\xa3\xa6h?'
p4820
tp4821
bag1
(g2
(I0
tp4822
g4
tp4823
Rp4824
(I1
(I1
tp4825
g11
I00
S'\xa3\xa6h?'
p4826
tp4827
bag1
(g2
(I0
tp4828
g4
tp4829
Rp4830
(I1
(I1
tp4831
g11
I00
S'\xa3\xa6h?'
p4832
tp4833
bag1
(g2
(I0
tp4834
g4
tp4835
Rp4836
(I1
(I1
tp4837
g11
I00
S'\xa3\xa6h?'
p4838
tp4839
bag1
(g2
(I0
tp4840
g4
tp4841
Rp4842
(I1
(I1
tp4843
g11
I00
S'\xa3\xa6h?'
p4844
tp4845
bag1
(g2
(I0
tp4846
g4
tp4847
Rp4848
(I1
(I1
tp4849
g11
I00
S'\xa3\xa6h?'
p4850
tp4851
bag1
(g2
(I0
tp4852
g4
tp4853
Rp4854
(I1
(I1
tp4855
g11
I00
S'\xa3\xa6h?'
p4856
tp4857
bag1
(g2
(I0
tp4858
g4
tp4859
Rp4860
(I1
(I1
tp4861
g11
I00
S'\xa3\xa6h?'
p4862
tp4863
bag1
(g2
(I0
tp4864
g4
tp4865
Rp4866
(I1
(I1
tp4867
g11
I00
S'\xa5\xa6h?'
p4868
tp4869
bag1
(g2
(I0
tp4870
g4
tp4871
Rp4872
(I1
(I1
tp4873
g11
I00
S'\xa5\xa6h?'
p4874
tp4875
bag1
(g2
(I0
tp4876
g4
tp4877
Rp4878
(I1
(I1
tp4879
g11
I00
S'\xa5\xa6h?'
p4880
tp4881
bag1
(g2
(I0
tp4882
g4
tp4883
Rp4884
(I1
(I1
tp4885
g11
I00
S'\xa5\xa6h?'
p4886
tp4887
bag1
(g2
(I0
tp4888
g4
tp4889
Rp4890
(I1
(I1
tp4891
g11
I00
S'\xa5\xa6h?'
p4892
tp4893
bag1
(g2
(I0
tp4894
g4
tp4895
Rp4896
(I1
(I1
tp4897
g11
I00
S'\xa5\xa6h?'
p4898
tp4899
bag1
(g2
(I0
tp4900
g4
tp4901
Rp4902
(I1
(I1
tp4903
g11
I00
S'\xa5\xa6h?'
p4904
tp4905
bag1
(g2
(I0
tp4906
g4
tp4907
Rp4908
(I1
(I1
tp4909
g11
I00
S'\xa5\xa6h?'
p4910
tp4911
bag1
(g2
(I0
tp4912
g4
tp4913
Rp4914
(I1
(I1
tp4915
g11
I00
S'\xa5\xa6h?'
p4916
tp4917
bag1
(g2
(I0
tp4918
g4
tp4919
Rp4920
(I1
(I1
tp4921
g11
I00
S'\xa5\xa6h?'
p4922
tp4923
bag1
(g2
(I0
tp4924
g4
tp4925
Rp4926
(I1
(I1
tp4927
g11
I00
S'\xa5\xa6h?'
p4928
tp4929
bag1
(g2
(I0
tp4930
g4
tp4931
Rp4932
(I1
(I1
tp4933
g11
I00
S'\xa5\xa6h?'
p4934
tp4935
bag1
(g2
(I0
tp4936
g4
tp4937
Rp4938
(I1
(I1
tp4939
g11
I00
S'\xa5\xa6h?'
p4940
tp4941
bag1
(g2
(I0
tp4942
g4
tp4943
Rp4944
(I1
(I1
tp4945
g11
I00
S'\xa5\xa6h?'
p4946
tp4947
bag1
(g2
(I0
tp4948
g4
tp4949
Rp4950
(I1
(I1
tp4951
g11
I00
S'\xa5\xa6h?'
p4952
tp4953
bag1
(g2
(I0
tp4954
g4
tp4955
Rp4956
(I1
(I1
tp4957
g11
I00
S'\xa5\xa6h?'
p4958
tp4959
bag1
(g2
(I0
tp4960
g4
tp4961
Rp4962
(I1
(I1
tp4963
g11
I00
S'\xa5\xa6h?'
p4964
tp4965
bag1
(g2
(I0
tp4966
g4
tp4967
Rp4968
(I1
(I1
tp4969
g11
I00
S'\xa5\xa6h?'
p4970
tp4971
bag1
(g2
(I0
tp4972
g4
tp4973
Rp4974
(I1
(I1
tp4975
g11
I00
S'\xa5\xa6h?'
p4976
tp4977
bag1
(g2
(I0
tp4978
g4
tp4979
Rp4980
(I1
(I1
tp4981
g11
I00
S'\xa5\xa6h?'
p4982
tp4983
bag1
(g2
(I0
tp4984
g4
tp4985
Rp4986
(I1
(I1
tp4987
g11
I00
S'\xa5\xa6h?'
p4988
tp4989
bag1
(g2
(I0
tp4990
g4
tp4991
Rp4992
(I1
(I1
tp4993
g11
I00
S'\xa5\xa6h?'
p4994
tp4995
bag1
(g2
(I0
tp4996
g4
tp4997
Rp4998
(I1
(I1
tp4999
g11
I00
S'\xa5\xa6h?'
p5000
tp5001
bag1
(g2
(I0
tp5002
g4
tp5003
Rp5004
(I1
(I1
tp5005
g11
I00
S'\xa7\xa6h?'
p5006
tp5007
bag1
(g2
(I0
tp5008
g4
tp5009
Rp5010
(I1
(I1
tp5011
g11
I00
S'\xa7\xa6h?'
p5012
tp5013
bag1
(g2
(I0
tp5014
g4
tp5015
Rp5016
(I1
(I1
tp5017
g11
I00
S'\xa5\xa6h?'
p5018
tp5019
bag1
(g2
(I0
tp5020
g4
tp5021
Rp5022
(I1
(I1
tp5023
g11
I00
S'\xa7\xa6h?'
p5024
tp5025
bag1
(g2
(I0
tp5026
g4
tp5027
Rp5028
(I1
(I1
tp5029
g11
I00
S'\xa7\xa6h?'
p5030
tp5031
bag1
(g2
(I0
tp5032
g4
tp5033
Rp5034
(I1
(I1
tp5035
g11
I00
S'\xa7\xa6h?'
p5036
tp5037
bag1
(g2
(I0
tp5038
g4
tp5039
Rp5040
(I1
(I1
tp5041
g11
I00
S'\xa7\xa6h?'
p5042
tp5043
bag1
(g2
(I0
tp5044
g4
tp5045
Rp5046
(I1
(I1
tp5047
g11
I00
S'\xa7\xa6h?'
p5048
tp5049
bag1
(g2
(I0
tp5050
g4
tp5051
Rp5052
(I1
(I1
tp5053
g11
I00
S'\xa7\xa6h?'
p5054
tp5055
bag1
(g2
(I0
tp5056
g4
tp5057
Rp5058
(I1
(I1
tp5059
g11
I00
S'\xa7\xa6h?'
p5060
tp5061
bag1
(g2
(I0
tp5062
g4
tp5063
Rp5064
(I1
(I1
tp5065
g11
I00
S'\xa7\xa6h?'
p5066
tp5067
bag1
(g2
(I0
tp5068
g4
tp5069
Rp5070
(I1
(I1
tp5071
g11
I00
S'\xa7\xa6h?'
p5072
tp5073
bag1
(g2
(I0
tp5074
g4
tp5075
Rp5076
(I1
(I1
tp5077
g11
I00
S'\xa7\xa6h?'
p5078
tp5079
bag1
(g2
(I0
tp5080
g4
tp5081
Rp5082
(I1
(I1
tp5083
g11
I00
S'\xa7\xa6h?'
p5084
tp5085
bag1
(g2
(I0
tp5086
g4
tp5087
Rp5088
(I1
(I1
tp5089
g11
I00
S'\xa7\xa6h?'
p5090
tp5091
bag1
(g2
(I0
tp5092
g4
tp5093
Rp5094
(I1
(I1
tp5095
g11
I00
S'\xa7\xa6h?'
p5096
tp5097
bag1
(g2
(I0
tp5098
g4
tp5099
Rp5100
(I1
(I1
tp5101
g11
I00
S'\xa7\xa6h?'
p5102
tp5103
bag1
(g2
(I0
tp5104
g4
tp5105
Rp5106
(I1
(I1
tp5107
g11
I00
S'\xa7\xa6h?'
p5108
tp5109
bag1
(g2
(I0
tp5110
g4
tp5111
Rp5112
(I1
(I1
tp5113
g11
I00
S'\xa7\xa6h?'
p5114
tp5115
bag1
(g2
(I0
tp5116
g4
tp5117
Rp5118
(I1
(I1
tp5119
g11
I00
S'\xa7\xa6h?'
p5120
tp5121
bag1
(g2
(I0
tp5122
g4
tp5123
Rp5124
(I1
(I1
tp5125
g11
I00
S'\xa7\xa6h?'
p5126
tp5127
bag1
(g2
(I0
tp5128
g4
tp5129
Rp5130
(I1
(I1
tp5131
g11
I00
S'\xa7\xa6h?'
p5132
tp5133
bag1
(g2
(I0
tp5134
g4
tp5135
Rp5136
(I1
(I1
tp5137
g11
I00
S'\xa7\xa6h?'
p5138
tp5139
bag1
(g2
(I0
tp5140
g4
tp5141
Rp5142
(I1
(I1
tp5143
g11
I00
S'\xa7\xa6h?'
p5144
tp5145
bag1
(g2
(I0
tp5146
g4
tp5147
Rp5148
(I1
(I1
tp5149
g11
I00
S'\xa7\xa6h?'
p5150
tp5151
bag1
(g2
(I0
tp5152
g4
tp5153
Rp5154
(I1
(I1
tp5155
g11
I00
S'\xa7\xa6h?'
p5156
tp5157
bag1
(g2
(I0
tp5158
g4
tp5159
Rp5160
(I1
(I1
tp5161
g11
I00
S'\xa7\xa6h?'
p5162
tp5163
bag1
(g2
(I0
tp5164
g4
tp5165
Rp5166
(I1
(I1
tp5167
g11
I00
S'\xa7\xa6h?'
p5168
tp5169
bag1
(g2
(I0
tp5170
g4
tp5171
Rp5172
(I1
(I1
tp5173
g11
I00
S'\xa7\xa6h?'
p5174
tp5175
bag1
(g2
(I0
tp5176
g4
tp5177
Rp5178
(I1
(I1
tp5179
g11
I00
S'\xa7\xa6h?'
p5180
tp5181
bag1
(g2
(I0
tp5182
g4
tp5183
Rp5184
(I1
(I1
tp5185
g11
I00
S'\xa7\xa6h?'
p5186
tp5187
bag1
(g2
(I0
tp5188
g4
tp5189
Rp5190
(I1
(I1
tp5191
g11
I00
S'\xa7\xa6h?'
p5192
tp5193
bag1
(g2
(I0
tp5194
g4
tp5195
Rp5196
(I1
(I1
tp5197
g11
I00
S'\xa7\xa6h?'
p5198
tp5199
bag1
(g2
(I0
tp5200
g4
tp5201
Rp5202
(I1
(I1
tp5203
g11
I00
S'\xa7\xa6h?'
p5204
tp5205
bag1
(g2
(I0
tp5206
g4
tp5207
Rp5208
(I1
(I1
tp5209
g11
I00
S'\xa7\xa6h?'
p5210
tp5211
bag1
(g2
(I0
tp5212
g4
tp5213
Rp5214
(I1
(I1
tp5215
g11
I00
S'\xa8\xa6h?'
p5216
tp5217
bag1
(g2
(I0
tp5218
g4
tp5219
Rp5220
(I1
(I1
tp5221
g11
I00
S'\xaa\xa6h?'
p5222
tp5223
bag1
(g2
(I0
tp5224
g4
tp5225
Rp5226
(I1
(I1
tp5227
g11
I00
S'\xaa\xa6h?'
p5228
tp5229
bag1
(g2
(I0
tp5230
g4
tp5231
Rp5232
(I1
(I1
tp5233
g11
I00
S'\xaa\xa6h?'
p5234
tp5235
bag1
(g2
(I0
tp5236
g4
tp5237
Rp5238
(I1
(I1
tp5239
g11
I00
S'\xaa\xa6h?'
p5240
tp5241
bag1
(g2
(I0
tp5242
g4
tp5243
Rp5244
(I1
(I1
tp5245
g11
I00
S'\xaa\xa6h?'
p5246
tp5247
bag1
(g2
(I0
tp5248
g4
tp5249
Rp5250
(I1
(I1
tp5251
g11
I00
S'\xaa\xa6h?'
p5252
tp5253
bag1
(g2
(I0
tp5254
g4
tp5255
Rp5256
(I1
(I1
tp5257
g11
I00
S'\xaa\xa6h?'
p5258
tp5259
bag1
(g2
(I0
tp5260
g4
tp5261
Rp5262
(I1
(I1
tp5263
g11
I00
S'\xaa\xa6h?'
p5264
tp5265
bag1
(g2
(I0
tp5266
g4
tp5267
Rp5268
(I1
(I1
tp5269
g11
I00
S'\xaa\xa6h?'
p5270
tp5271
bag1
(g2
(I0
tp5272
g4
tp5273
Rp5274
(I1
(I1
tp5275
g11
I00
S'\xaa\xa6h?'
p5276
tp5277
bag1
(g2
(I0
tp5278
g4
tp5279
Rp5280
(I1
(I1
tp5281
g11
I00
S'\xaa\xa6h?'
p5282
tp5283
bag1
(g2
(I0
tp5284
g4
tp5285
Rp5286
(I1
(I1
tp5287
g11
I00
S'\xaa\xa6h?'
p5288
tp5289
bag1
(g2
(I0
tp5290
g4
tp5291
Rp5292
(I1
(I1
tp5293
g11
I00
S'\xaa\xa6h?'
p5294
tp5295
bag1
(g2
(I0
tp5296
g4
tp5297
Rp5298
(I1
(I1
tp5299
g11
I00
S'\xaa\xa6h?'
p5300
tp5301
bag1
(g2
(I0
tp5302
g4
tp5303
Rp5304
(I1
(I1
tp5305
g11
I00
S'\xaa\xa6h?'
p5306
tp5307
bag1
(g2
(I0
tp5308
g4
tp5309
Rp5310
(I1
(I1
tp5311
g11
I00
S'\xaa\xa6h?'
p5312
tp5313
bag1
(g2
(I0
tp5314
g4
tp5315
Rp5316
(I1
(I1
tp5317
g11
I00
S'\xaa\xa6h?'
p5318
tp5319
bag1
(g2
(I0
tp5320
g4
tp5321
Rp5322
(I1
(I1
tp5323
g11
I00
S'\xaa\xa6h?'
p5324
tp5325
bag1
(g2
(I0
tp5326
g4
tp5327
Rp5328
(I1
(I1
tp5329
g11
I00
S'\xaa\xa6h?'
p5330
tp5331
bag1
(g2
(I0
tp5332
g4
tp5333
Rp5334
(I1
(I1
tp5335
g11
I00
S'\xaa\xa6h?'
p5336
tp5337
bag1
(g2
(I0
tp5338
g4
tp5339
Rp5340
(I1
(I1
tp5341
g11
I00
S'\xaa\xa6h?'
p5342
tp5343
bag1
(g2
(I0
tp5344
g4
tp5345
Rp5346
(I1
(I1
tp5347
g11
I00
S'\xaa\xa6h?'
p5348
tp5349
bag1
(g2
(I0
tp5350
g4
tp5351
Rp5352
(I1
(I1
tp5353
g11
I00
S'\xaa\xa6h?'
p5354
tp5355
bag1
(g2
(I0
tp5356
g4
tp5357
Rp5358
(I1
(I1
tp5359
g11
I00
S'\xaa\xa6h?'
p5360
tp5361
bag1
(g2
(I0
tp5362
g4
tp5363
Rp5364
(I1
(I1
tp5365
g11
I00
S'\xaa\xa6h?'
p5366
tp5367
bag1
(g2
(I0
tp5368
g4
tp5369
Rp5370
(I1
(I1
tp5371
g11
I00
S'\xaa\xa6h?'
p5372
tp5373
bag1
(g2
(I0
tp5374
g4
tp5375
Rp5376
(I1
(I1
tp5377
g11
I00
S'\xaa\xa6h?'
p5378
tp5379
bag1
(g2
(I0
tp5380
g4
tp5381
Rp5382
(I1
(I1
tp5383
g11
I00
S'\xaa\xa6h?'
p5384
tp5385
bag1
(g2
(I0
tp5386
g4
tp5387
Rp5388
(I1
(I1
tp5389
g11
I00
S'\xaa\xa6h?'
p5390
tp5391
bag1
(g2
(I0
tp5392
g4
tp5393
Rp5394
(I1
(I1
tp5395
g11
I00
S'\xaa\xa6h?'
p5396
tp5397
bag1
(g2
(I0
tp5398
g4
tp5399
Rp5400
(I1
(I1
tp5401
g11
I00
S'\xaa\xa6h?'
p5402
tp5403
bag1
(g2
(I0
tp5404
g4
tp5405
Rp5406
(I1
(I1
tp5407
g11
I00
S'\xaa\xa6h?'
p5408
tp5409
bag1
(g2
(I0
tp5410
g4
tp5411
Rp5412
(I1
(I1
tp5413
g11
I00
S'\xaa\xa6h?'
p5414
tp5415
bag1
(g2
(I0
tp5416
g4
tp5417
Rp5418
(I1
(I1
tp5419
g11
I00
S'\xaa\xa6h?'
p5420
tp5421
bag1
(g2
(I0
tp5422
g4
tp5423
Rp5424
(I1
(I1
tp5425
g11
I00
S'\xaa\xa6h?'
p5426
tp5427
bag1
(g2
(I0
tp5428
g4
tp5429
Rp5430
(I1
(I1
tp5431
g11
I00
S'\xaa\xa6h?'
p5432
tp5433
bag1
(g2
(I0
tp5434
g4
tp5435
Rp5436
(I1
(I1
tp5437
g11
I00
S'\xaa\xa6h?'
p5438
tp5439
bag1
(g2
(I0
tp5440
g4
tp5441
Rp5442
(I1
(I1
tp5443
g11
I00
S'\xaa\xa6h?'
p5444
tp5445
bag1
(g2
(I0
tp5446
g4
tp5447
Rp5448
(I1
(I1
tp5449
g11
I00
S'\xaa\xa6h?'
p5450
tp5451
bag1
(g2
(I0
tp5452
g4
tp5453
Rp5454
(I1
(I1
tp5455
g11
I00
S'\xaa\xa6h?'
p5456
tp5457
bag1
(g2
(I0
tp5458
g4
tp5459
Rp5460
(I1
(I1
tp5461
g11
I00
S'\xaa\xa6h?'
p5462
tp5463
bag1
(g2
(I0
tp5464
g4
tp5465
Rp5466
(I1
(I1
tp5467
g11
I00
S'\xaa\xa6h?'
p5468
tp5469
bag1
(g2
(I0
tp5470
g4
tp5471
Rp5472
(I1
(I1
tp5473
g11
I00
S'\xaa\xa6h?'
p5474
tp5475
bag1
(g2
(I0
tp5476
g4
tp5477
Rp5478
(I1
(I1
tp5479
g11
I00
S'\xaa\xa6h?'
p5480
tp5481
bag1
(g2
(I0
tp5482
g4
tp5483
Rp5484
(I1
(I1
tp5485
g11
I00
S'\xaa\xa6h?'
p5486
tp5487
bag1
(g2
(I0
tp5488
g4
tp5489
Rp5490
(I1
(I1
tp5491
g11
I00
S'\xaa\xa6h?'
p5492
tp5493
bag1
(g2
(I0
tp5494
g4
tp5495
Rp5496
(I1
(I1
tp5497
g11
I00
S'\xaa\xa6h?'
p5498
tp5499
bag1
(g2
(I0
tp5500
g4
tp5501
Rp5502
(I1
(I1
tp5503
g11
I00
S'\xaa\xa6h?'
p5504
tp5505
bag1
(g2
(I0
tp5506
g4
tp5507
Rp5508
(I1
(I1
tp5509
g11
I00
S'\xaa\xa6h?'
p5510
tp5511
bag1
(g2
(I0
tp5512
g4
tp5513
Rp5514
(I1
(I1
tp5515
g11
I00
S'\xaa\xa6h?'
p5516
tp5517
bag1
(g2
(I0
tp5518
g4
tp5519
Rp5520
(I1
(I1
tp5521
g11
I00
S'\xaa\xa6h?'
p5522
tp5523
bag1
(g2
(I0
tp5524
g4
tp5525
Rp5526
(I1
(I1
tp5527
g11
I00
S'\xaa\xa6h?'
p5528
tp5529
bag1
(g2
(I0
tp5530
g4
tp5531
Rp5532
(I1
(I1
tp5533
g11
I00
S'\xaa\xa6h?'
p5534
tp5535
bag1
(g2
(I0
tp5536
g4
tp5537
Rp5538
(I1
(I1
tp5539
g11
I00
S'\xaa\xa6h?'
p5540
tp5541
bag1
(g2
(I0
tp5542
g4
tp5543
Rp5544
(I1
(I1
tp5545
g11
I00
S'\xaa\xa6h?'
p5546
tp5547
bag1
(g2
(I0
tp5548
g4
tp5549
Rp5550
(I1
(I1
tp5551
g11
I00
S'\xaa\xa6h?'
p5552
tp5553
bag1
(g2
(I0
tp5554
g4
tp5555
Rp5556
(I1
(I1
tp5557
g11
I00
S'\xac\xa6h?'
p5558
tp5559
bag1
(g2
(I0
tp5560
g4
tp5561
Rp5562
(I1
(I1
tp5563
g11
I00
S'\xac\xa6h?'
p5564
tp5565
bag1
(g2
(I0
tp5566
g4
tp5567
Rp5568
(I1
(I1
tp5569
g11
I00
S'\xac\xa6h?'
p5570
tp5571
bag1
(g2
(I0
tp5572
g4
tp5573
Rp5574
(I1
(I1
tp5575
g11
I00
S'\xac\xa6h?'
p5576
tp5577
bag1
(g2
(I0
tp5578
g4
tp5579
Rp5580
(I1
(I1
tp5581
g11
I00
S'\xac\xa6h?'
p5582
tp5583
bag1
(g2
(I0
tp5584
g4
tp5585
Rp5586
(I1
(I1
tp5587
g11
I00
S'\xac\xa6h?'
p5588
tp5589
bag1
(g2
(I0
tp5590
g4
tp5591
Rp5592
(I1
(I1
tp5593
g11
I00
S'\xac\xa6h?'
p5594
tp5595
bag1
(g2
(I0
tp5596
g4
tp5597
Rp5598
(I1
(I1
tp5599
g11
I00
S'\xac\xa6h?'
p5600
tp5601
bag1
(g2
(I0
tp5602
g4
tp5603
Rp5604
(I1
(I1
tp5605
g11
I00
S'\xac\xa6h?'
p5606
tp5607
bag1
(g2
(I0
tp5608
g4
tp5609
Rp5610
(I1
(I1
tp5611
g11
I00
S'\xac\xa6h?'
p5612
tp5613
bag1
(g2
(I0
tp5614
g4
tp5615
Rp5616
(I1
(I1
tp5617
g11
I00
S'\xac\xa6h?'
p5618
tp5619
bag1
(g2
(I0
tp5620
g4
tp5621
Rp5622
(I1
(I1
tp5623
g11
I00
S'\xac\xa6h?'
p5624
tp5625
bag1
(g2
(I0
tp5626
g4
tp5627
Rp5628
(I1
(I1
tp5629
g11
I00
S'\xac\xa6h?'
p5630
tp5631
bag1
(g2
(I0
tp5632
g4
tp5633
Rp5634
(I1
(I1
tp5635
g11
I00
S'\xac\xa6h?'
p5636
tp5637
bag1
(g2
(I0
tp5638
g4
tp5639
Rp5640
(I1
(I1
tp5641
g11
I00
S'\xac\xa6h?'
p5642
tp5643
bag1
(g2
(I0
tp5644
g4
tp5645
Rp5646
(I1
(I1
tp5647
g11
I00
S'\xac\xa6h?'
p5648
tp5649
bag1
(g2
(I0
tp5650
g4
tp5651
Rp5652
(I1
(I1
tp5653
g11
I00
S'\xac\xa6h?'
p5654
tp5655
bag1
(g2
(I0
tp5656
g4
tp5657
Rp5658
(I1
(I1
tp5659
g11
I00
S'\xac\xa6h?'
p5660
tp5661
bag1
(g2
(I0
tp5662
g4
tp5663
Rp5664
(I1
(I1
tp5665
g11
I00
S'\xac\xa6h?'
p5666
tp5667
bag1
(g2
(I0
tp5668
g4
tp5669
Rp5670
(I1
(I1
tp5671
g11
I00
S'\xac\xa6h?'
p5672
tp5673
bag1
(g2
(I0
tp5674
g4
tp5675
Rp5676
(I1
(I1
tp5677
g11
I00
S'\xac\xa6h?'
p5678
tp5679
bag1
(g2
(I0
tp5680
g4
tp5681
Rp5682
(I1
(I1
tp5683
g11
I00
S'\xac\xa6h?'
p5684
tp5685
bag1
(g2
(I0
tp5686
g4
tp5687
Rp5688
(I1
(I1
tp5689
g11
I00
S'\xac\xa6h?'
p5690
tp5691
bag1
(g2
(I0
tp5692
g4
tp5693
Rp5694
(I1
(I1
tp5695
g11
I00
S'\xac\xa6h?'
p5696
tp5697
bag1
(g2
(I0
tp5698
g4
tp5699
Rp5700
(I1
(I1
tp5701
g11
I00
S'\xac\xa6h?'
p5702
tp5703
bag1
(g2
(I0
tp5704
g4
tp5705
Rp5706
(I1
(I1
tp5707
g11
I00
S'\xac\xa6h?'
p5708
tp5709
bag1
(g2
(I0
tp5710
g4
tp5711
Rp5712
(I1
(I1
tp5713
g11
I00
S'\xac\xa6h?'
p5714
tp5715
bag1
(g2
(I0
tp5716
g4
tp5717
Rp5718
(I1
(I1
tp5719
g11
I00
S'\xac\xa6h?'
p5720
tp5721
bag1
(g2
(I0
tp5722
g4
tp5723
Rp5724
(I1
(I1
tp5725
g11
I00
S'\xac\xa6h?'
p5726
tp5727
bag1
(g2
(I0
tp5728
g4
tp5729
Rp5730
(I1
(I1
tp5731
g11
I00
S'\xac\xa6h?'
p5732
tp5733
bag1
(g2
(I0
tp5734
g4
tp5735
Rp5736
(I1
(I1
tp5737
g11
I00
S'\xac\xa6h?'
p5738
tp5739
bag1
(g2
(I0
tp5740
g4
tp5741
Rp5742
(I1
(I1
tp5743
g11
I00
S'\xac\xa6h?'
p5744
tp5745
bag1
(g2
(I0
tp5746
g4
tp5747
Rp5748
(I1
(I1
tp5749
g11
I00
S'\xac\xa6h?'
p5750
tp5751
bag1
(g2
(I0
tp5752
g4
tp5753
Rp5754
(I1
(I1
tp5755
g11
I00
S'\xac\xa6h?'
p5756
tp5757
bag1
(g2
(I0
tp5758
g4
tp5759
Rp5760
(I1
(I1
tp5761
g11
I00
S'\xac\xa6h?'
p5762
tp5763
bag1
(g2
(I0
tp5764
g4
tp5765
Rp5766
(I1
(I1
tp5767
g11
I00
S'\xac\xa6h?'
p5768
tp5769
bag1
(g2
(I0
tp5770
g4
tp5771
Rp5772
(I1
(I1
tp5773
g11
I00
S'\xac\xa6h?'
p5774
tp5775
bag1
(g2
(I0
tp5776
g4
tp5777
Rp5778
(I1
(I1
tp5779
g11
I00
S'\xac\xa6h?'
p5780
tp5781
bag1
(g2
(I0
tp5782
g4
tp5783
Rp5784
(I1
(I1
tp5785
g11
I00
S'\xac\xa6h?'
p5786
tp5787
bag1
(g2
(I0
tp5788
g4
tp5789
Rp5790
(I1
(I1
tp5791
g11
I00
S'\xac\xa6h?'
p5792
tp5793
bag1
(g2
(I0
tp5794
g4
tp5795
Rp5796
(I1
(I1
tp5797
g11
I00
S'\xac\xa6h?'
p5798
tp5799
bag1
(g2
(I0
tp5800
g4
tp5801
Rp5802
(I1
(I1
tp5803
g11
I00
S'\xac\xa6h?'
p5804
tp5805
bag1
(g2
(I0
tp5806
g4
tp5807
Rp5808
(I1
(I1
tp5809
g11
I00
S'\xac\xa6h?'
p5810
tp5811
bag1
(g2
(I0
tp5812
g4
tp5813
Rp5814
(I1
(I1
tp5815
g11
I00
S'\xac\xa6h?'
p5816
tp5817
bag1
(g2
(I0
tp5818
g4
tp5819
Rp5820
(I1
(I1
tp5821
g11
I00
S'\xac\xa6h?'
p5822
tp5823
bag1
(g2
(I0
tp5824
g4
tp5825
Rp5826
(I1
(I1
tp5827
g11
I00
S'\xac\xa6h?'
p5828
tp5829
bag1
(g2
(I0
tp5830
g4
tp5831
Rp5832
(I1
(I1
tp5833
g11
I00
S'\xac\xa6h?'
p5834
tp5835
bag1
(g2
(I0
tp5836
g4
tp5837
Rp5838
(I1
(I1
tp5839
g11
I00
S'\xac\xa6h?'
p5840
tp5841
bag1
(g2
(I0
tp5842
g4
tp5843
Rp5844
(I1
(I1
tp5845
g11
I00
S'\xac\xa6h?'
p5846
tp5847
bag1
(g2
(I0
tp5848
g4
tp5849
Rp5850
(I1
(I1
tp5851
g11
I00
S'\xac\xa6h?'
p5852
tp5853
bag1
(g2
(I0
tp5854
g4
tp5855
Rp5856
(I1
(I1
tp5857
g11
I00
S'\xac\xa6h?'
p5858
tp5859
bag1
(g2
(I0
tp5860
g4
tp5861
Rp5862
(I1
(I1
tp5863
g11
I00
S'\xac\xa6h?'
p5864
tp5865
bag1
(g2
(I0
tp5866
g4
tp5867
Rp5868
(I1
(I1
tp5869
g11
I00
S'\xac\xa6h?'
p5870
tp5871
bag1
(g2
(I0
tp5872
g4
tp5873
Rp5874
(I1
(I1
tp5875
g11
I00
S'\xac\xa6h?'
p5876
tp5877
bag1
(g2
(I0
tp5878
g4
tp5879
Rp5880
(I1
(I1
tp5881
g11
I00
S'\xac\xa6h?'
p5882
tp5883
bag1
(g2
(I0
tp5884
g4
tp5885
Rp5886
(I1
(I1
tp5887
g11
I00
S'\xac\xa6h?'
p5888
tp5889
bag1
(g2
(I0
tp5890
g4
tp5891
Rp5892
(I1
(I1
tp5893
g11
I00
S'\xac\xa6h?'
p5894
tp5895
bag1
(g2
(I0
tp5896
g4
tp5897
Rp5898
(I1
(I1
tp5899
g11
I00
S'\xac\xa6h?'
p5900
tp5901
bag1
(g2
(I0
tp5902
g4
tp5903
Rp5904
(I1
(I1
tp5905
g11
I00
S'\xac\xa6h?'
p5906
tp5907
bag1
(g2
(I0
tp5908
g4
tp5909
Rp5910
(I1
(I1
tp5911
g11
I00
S'\xac\xa6h?'
p5912
tp5913
bag1
(g2
(I0
tp5914
g4
tp5915
Rp5916
(I1
(I1
tp5917
g11
I00
S'\xac\xa6h?'
p5918
tp5919
bag1
(g2
(I0
tp5920
g4
tp5921
Rp5922
(I1
(I1
tp5923
g11
I00
S'\xad\xa6h?'
p5924
tp5925
bag1
(g2
(I0
tp5926
g4
tp5927
Rp5928
(I1
(I1
tp5929
g11
I00
S'\xad\xa6h?'
p5930
tp5931
bag1
(g2
(I0
tp5932
g4
tp5933
Rp5934
(I1
(I1
tp5935
g11
I00
S'\xad\xa6h?'
p5936
tp5937
bag1
(g2
(I0
tp5938
g4
tp5939
Rp5940
(I1
(I1
tp5941
g11
I00
S'\xad\xa6h?'
p5942
tp5943
bag1
(g2
(I0
tp5944
g4
tp5945
Rp5946
(I1
(I1
tp5947
g11
I00
S'\xad\xa6h?'
p5948
tp5949
bag1
(g2
(I0
tp5950
g4
tp5951
Rp5952
(I1
(I1
tp5953
g11
I00
S'\xad\xa6h?'
p5954
tp5955
bag1
(g2
(I0
tp5956
g4
tp5957
Rp5958
(I1
(I1
tp5959
g11
I00
S'\xad\xa6h?'
p5960
tp5961
bag1
(g2
(I0
tp5962
g4
tp5963
Rp5964
(I1
(I1
tp5965
g11
I00
S'\xad\xa6h?'
p5966
tp5967
bag1
(g2
(I0
tp5968
g4
tp5969
Rp5970
(I1
(I1
tp5971
g11
I00
S'\xad\xa6h?'
p5972
tp5973
bag1
(g2
(I0
tp5974
g4
tp5975
Rp5976
(I1
(I1
tp5977
g11
I00
S'\xad\xa6h?'
p5978
tp5979
bag1
(g2
(I0
tp5980
g4
tp5981
Rp5982
(I1
(I1
tp5983
g11
I00
S'\xad\xa6h?'
p5984
tp5985
bag1
(g2
(I0
tp5986
g4
tp5987
Rp5988
(I1
(I1
tp5989
g11
I00
S'\xad\xa6h?'
p5990
tp5991
bag1
(g2
(I0
tp5992
g4
tp5993
Rp5994
(I1
(I1
tp5995
g11
I00
S'\xad\xa6h?'
p5996
tp5997
bag1
(g2
(I0
tp5998
g4
tp5999
Rp6000
(I1
(I1
tp6001
g11
I00
S'\xad\xa6h?'
p6002
tp6003
bag1
(g2
(I0
tp6004
g4
tp6005
Rp6006
(I1
(I1
tp6007
g11
I00
S'\xad\xa6h?'
p6008
tp6009
ba(lp6010
g1
(g2
(I0
tp6011
g4
tp6012
Rp6013
(I1
(I1
tp6014
g11
I00
S'6\xb5\xff='
p6015
tp6016
bag1
(g2
(I0
tp6017
g4
tp6018
Rp6019
(I1
(I1
tp6020
g11
I00
S'\x8a\xf8\xb7='
p6021
tp6022
bag1
(g2
(I0
tp6023
g4
tp6024
Rp6025
(I1
(I1
tp6026
g11
I00
S'6\xcd\x95='
p6027
tp6028
bag1
(g2
(I0
tp6029
g4
tp6030
Rp6031
(I1
(I1
tp6032
g11
I00
S'\xef\x91\x8a='
p6033
tp6034
bag1
(g2
(I0
tp6035
g4
tp6036
Rp6037
(I1
(I1
tp6038
g11
I00
S'\x10i\x83='
p6039
tp6040
bag1
(g2
(I0
tp6041
g4
tp6042
Rp6043
(I1
(I1
tp6044
g11
I00
S'\x1f\xf9v='
p6045
tp6046
bag1
(g2
(I0
tp6047
g4
tp6048
Rp6049
(I1
(I1
tp6050
g11
I00
S'\x9cwg='
p6051
tp6052
bag1
(g2
(I0
tp6053
g4
tp6054
Rp6055
(I1
(I1
tp6056
g11
I00
S'\x8f\x1e]='
p6057
tp6058
bag1
(g2
(I0
tp6059
g4
tp6060
Rp6061
(I1
(I1
tp6062
g11
I00
S'~1X='
p6063
tp6064
bag1
(g2
(I0
tp6065
g4
tp6066
Rp6067
(I1
(I1
tp6068
g11
I00
S'\xc0,V='
p6069
tp6070
bag1
(g2
(I0
tp6071
g4
tp6072
Rp6073
(I1
(I1
tp6074
g11
I00
S'\x1c)U='
p6075
tp6076
bag1
(g2
(I0
tp6077
g4
tp6078
Rp6079
(I1
(I1
tp6080
g11
I00
S'\x9e7T='
p6081
tp6082
bag1
(g2
(I0
tp6083
g4
tp6084
Rp6085
(I1
(I1
tp6086
g11
I00
S'\xf4$S='
p6087
tp6088
bag1
(g2
(I0
tp6089
g4
tp6090
Rp6091
(I1
(I1
tp6092
g11
I00
S'!\x07R='
p6093
tp6094
bag1
(g2
(I0
tp6095
g4
tp6096
Rp6097
(I1
(I1
tp6098
g11
I00
S'\xb4\xfcP='
p6099
tp6100
bag1
(g2
(I0
tp6101
g4
tp6102
Rp6103
(I1
(I1
tp6104
g11
I00
S'\xea\x15P='
p6105
tp6106
bag1
(g2
(I0
tp6107
g4
tp6108
Rp6109
(I1
(I1
tp6110
g11
I00
S'NRO='
p6111
tp6112
bag1
(g2
(I0
tp6113
g4
tp6114
Rp6115
(I1
(I1
tp6116
g11
I00
S'Y\xa8N='
p6117
tp6118
bag1
(g2
(I0
tp6119
g4
tp6120
Rp6121
(I1
(I1
tp6122
g11
I00
S':\x0bN='
p6123
tp6124
bag1
(g2
(I0
tp6125
g4
tp6126
Rp6127
(I1
(I1
tp6128
g11
I00
S'\xb1oM='
p6129
tp6130
bag1
(g2
(I0
tp6131
g4
tp6132
Rp6133
(I1
(I1
tp6134
g11
I00
S'\x1a\xd1L='
p6135
tp6136
bag1
(g2
(I0
tp6137
g4
tp6138
Rp6139
(I1
(I1
tp6140
g11
I00
S'D5L='
p6141
tp6142
bag1
(g2
(I0
tp6143
g4
tp6144
Rp6145
(I1
(I1
tp6146
g11
I00
S'\xb5\xaaK='
p6147
tp6148
bag1
(g2
(I0
tp6149
g4
tp6150
Rp6151
(I1
(I1
tp6152
g11
I00
S'M>K='
p6153
tp6154
bag1
(g2
(I0
tp6155
g4
tp6156
Rp6157
(I1
(I1
tp6158
g11
I00
S'\xe9\xf2J='
p6159
tp6160
bag1
(g2
(I0
tp6161
g4
tp6162
Rp6163
(I1
(I1
tp6164
g11
I00
S'\x0b\xc2J='
p6165
tp6166
bag1
(g2
(I0
tp6167
g4
tp6168
Rp6169
(I1
(I1
tp6170
g11
I00
S'\x98\xa2J='
p6171
tp6172
bag1
(g2
(I0
tp6173
g4
tp6174
Rp6175
(I1
(I1
tp6176
g11
I00
S'%\x8dJ='
p6177
tp6178
bag1
(g2
(I0
tp6179
g4
tp6180
Rp6181
(I1
(I1
tp6182
g11
I00
S'\xef|J='
p6183
tp6184
bag1
(g2
(I0
tp6185
g4
tp6186
Rp6187
(I1
(I1
tp6188
g11
I00
S'FoJ='
p6189
tp6190
bag1
(g2
(I0
tp6191
g4
tp6192
Rp6193
(I1
(I1
tp6194
g11
I00
S'\xe1bJ='
p6195
tp6196
bag1
(g2
(I0
tp6197
g4
tp6198
Rp6199
(I1
(I1
tp6200
g11
I00
S'&WJ='
p6201
tp6202
bag1
(g2
(I0
tp6203
g4
tp6204
Rp6205
(I1
(I1
tp6206
g11
I00
S'\xebKJ='
p6207
tp6208
bag1
(g2
(I0
tp6209
g4
tp6210
Rp6211
(I1
(I1
tp6212
g11
I00
S'7AJ='
p6213
tp6214
bag1
(g2
(I0
tp6215
g4
tp6216
Rp6217
(I1
(I1
tp6218
g11
I00
S'!7J='
p6219
tp6220
bag1
(g2
(I0
tp6221
g4
tp6222
Rp6223
(I1
(I1
tp6224
g11
I00
S'\xc4-J='
p6225
tp6226
bag1
(g2
(I0
tp6227
g4
tp6228
Rp6229
(I1
(I1
tp6230
g11
I00
S'6%J='
p6231
tp6232
bag1
(g2
(I0
tp6233
g4
tp6234
Rp6235
(I1
(I1
tp6236
g11
I00
S'{\x1dJ='
p6237
tp6238
bag1
(g2
(I0
tp6239
g4
tp6240
Rp6241
(I1
(I1
tp6242
g11
I00
S'\x89\x16J='
p6243
tp6244
bag1
(g2
(I0
tp6245
g4
tp6246
Rp6247
(I1
(I1
tp6248
g11
I00
S']\x10J='
p6249
tp6250
bag1
(g2
(I0
tp6251
g4
tp6252
Rp6253
(I1
(I1
tp6254
g11
I00
S'\xe8\nJ='
p6255
tp6256
bag1
(g2
(I0
tp6257
g4
tp6258
Rp6259
(I1
(I1
tp6260
g11
I00
S'\x18\x06J='
p6261
tp6262
bag1
(g2
(I0
tp6263
g4
tp6264
Rp6265
(I1
(I1
tp6266
g11
I00
S'\xda\x01J='
p6267
tp6268
bag1
(g2
(I0
tp6269
g4
tp6270
Rp6271
(I1
(I1
tp6272
g11
I00
S'\x1c\xfeI='
p6273
tp6274
bag1
(g2
(I0
tp6275
g4
tp6276
Rp6277
(I1
(I1
tp6278
g11
I00
S'\xd8\xfaI='
p6279
tp6280
bag1
(g2
(I0
tp6281
g4
tp6282
Rp6283
(I1
(I1
tp6284
g11
I00
S'\xef\xf7I='
p6285
tp6286
bag1
(g2
(I0
tp6287
g4
tp6288
Rp6289
(I1
(I1
tp6290
g11
I00
S'a\xf5I='
p6291
tp6292
bag1
(g2
(I0
tp6293
g4
tp6294
Rp6295
(I1
(I1
tp6296
g11
I00
S'\x1f\xf3I='
p6297
tp6298
bag1
(g2
(I0
tp6299
g4
tp6300
Rp6301
(I1
(I1
tp6302
g11
I00
S'\x17\xf1I='
p6303
tp6304
bag1
(g2
(I0
tp6305
g4
tp6306
Rp6307
(I1
(I1
tp6308
g11
I00
S'M\xefI='
p6309
tp6310
bag1
(g2
(I0
tp6311
g4
tp6312
Rp6313
(I1
(I1
tp6314
g11
I00
S'\xac\xedI='
p6315
tp6316
bag1
(g2
(I0
tp6317
g4
tp6318
Rp6319
(I1
(I1
tp6320
g11
I00
S'9\xecI='
p6321
tp6322
bag1
(g2
(I0
tp6323
g4
tp6324
Rp6325
(I1
(I1
tp6326
g11
I00
S'\xec\xeaI='
p6327
tp6328
bag1
(g2
(I0
tp6329
g4
tp6330
Rp6331
(I1
(I1
tp6332
g11
I00
S'\xbf\xe9I='
p6333
tp6334
bag1
(g2
(I0
tp6335
g4
tp6336
Rp6337
(I1
(I1
tp6338
g11
I00
S'\xaa\xe8I='
p6339
tp6340
bag1
(g2
(I0
tp6341
g4
tp6342
Rp6343
(I1
(I1
tp6344
g11
I00
S'\xb0\xe7I='
p6345
tp6346
bag1
(g2
(I0
tp6347
g4
tp6348
Rp6349
(I1
(I1
tp6350
g11
I00
S'\xcb\xe6I='
p6351
tp6352
bag1
(g2
(I0
tp6353
g4
tp6354
Rp6355
(I1
(I1
tp6356
g11
I00
S'\xf8\xe5I='
p6357
tp6358
bag1
(g2
(I0
tp6359
g4
tp6360
Rp6361
(I1
(I1
tp6362
g11
I00
S'<\xe5I='
p6363
tp6364
bag1
(g2
(I0
tp6365
g4
tp6366
Rp6367
(I1
(I1
tp6368
g11
I00
S'\x8b\xe4I='
p6369
tp6370
bag1
(g2
(I0
tp6371
g4
tp6372
Rp6373
(I1
(I1
tp6374
g11
I00
S'\xeb\xe3I='
p6375
tp6376
bag1
(g2
(I0
tp6377
g4
tp6378
Rp6379
(I1
(I1
tp6380
g11
I00
S'V\xe3I='
p6381
tp6382
bag1
(g2
(I0
tp6383
g4
tp6384
Rp6385
(I1
(I1
tp6386
g11
I00
S'\xcb\xe2I='
p6387
tp6388
bag1
(g2
(I0
tp6389
g4
tp6390
Rp6391
(I1
(I1
tp6392
g11
I00
S'L\xe2I='
p6393
tp6394
bag1
(g2
(I0
tp6395
g4
tp6396
Rp6397
(I1
(I1
tp6398
g11
I00
S'\xd4\xe1I='
p6399
tp6400
bag1
(g2
(I0
tp6401
g4
tp6402
Rp6403
(I1
(I1
tp6404
g11
I00
S'b\xe1I='
p6405
tp6406
bag1
(g2
(I0
tp6407
g4
tp6408
Rp6409
(I1
(I1
tp6410
g11
I00
S'\xfd\xe0I='
p6411
tp6412
bag1
(g2
(I0
tp6413
g4
tp6414
Rp6415
(I1
(I1
tp6416
g11
I00
S'\x9d\xe0I='
p6417
tp6418
bag1
(g2
(I0
tp6419
g4
tp6420
Rp6421
(I1
(I1
tp6422
g11
I00
S'B\xe0I='
p6423
tp6424
bag1
(g2
(I0
tp6425
g4
tp6426
Rp6427
(I1
(I1
tp6428
g11
I00
S'\xee\xdfI='
p6429
tp6430
bag1
(g2
(I0
tp6431
g4
tp6432
Rp6433
(I1
(I1
tp6434
g11
I00
S'\x9d\xdfI='
p6435
tp6436
bag1
(g2
(I0
tp6437
g4
tp6438
Rp6439
(I1
(I1
tp6440
g11
I00
S'S\xdfI='
p6441
tp6442
bag1
(g2
(I0
tp6443
g4
tp6444
Rp6445
(I1
(I1
tp6446
g11
I00
S'\x0c\xdfI='
p6447
tp6448
bag1
(g2
(I0
tp6449
g4
tp6450
Rp6451
(I1
(I1
tp6452
g11
I00
S'\xc7\xdeI='
p6453
tp6454
bag1
(g2
(I0
tp6455
g4
tp6456
Rp6457
(I1
(I1
tp6458
g11
I00
S'\x88\xdeI='
p6459
tp6460
bag1
(g2
(I0
tp6461
g4
tp6462
Rp6463
(I1
(I1
tp6464
g11
I00
S'J\xdeI='
p6465
tp6466
bag1
(g2
(I0
tp6467
g4
tp6468
Rp6469
(I1
(I1
tp6470
g11
I00
S'\x0e\xdeI='
p6471
tp6472
bag1
(g2
(I0
tp6473
g4
tp6474
Rp6475
(I1
(I1
tp6476
g11
I00
S'\xd9\xddI='
p6477
tp6478
bag1
(g2
(I0
tp6479
g4
tp6480
Rp6481
(I1
(I1
tp6482
g11
I00
S'\xa3\xddI='
p6483
tp6484
bag1
(g2
(I0
tp6485
g4
tp6486
Rp6487
(I1
(I1
tp6488
g11
I00
S'q\xddI='
p6489
tp6490
bag1
(g2
(I0
tp6491
g4
tp6492
Rp6493
(I1
(I1
tp6494
g11
I00
S'B\xddI='
p6495
tp6496
bag1
(g2
(I0
tp6497
g4
tp6498
Rp6499
(I1
(I1
tp6500
g11
I00
S'\x15\xddI='
p6501
tp6502
bag1
(g2
(I0
tp6503
g4
tp6504
Rp6505
(I1
(I1
tp6506
g11
I00
S'\xe7\xdcI='
p6507
tp6508
bag1
(g2
(I0
tp6509
g4
tp6510
Rp6511
(I1
(I1
tp6512
g11
I00
S'\xbb\xdcI='
p6513
tp6514
bag1
(g2
(I0
tp6515
g4
tp6516
Rp6517
(I1
(I1
tp6518
g11
I00
S'\x93\xdcI='
p6519
tp6520
bag1
(g2
(I0
tp6521
g4
tp6522
Rp6523
(I1
(I1
tp6524
g11
I00
S'k\xdcI='
p6525
tp6526
bag1
(g2
(I0
tp6527
g4
tp6528
Rp6529
(I1
(I1
tp6530
g11
I00
S'D\xdcI='
p6531
tp6532
bag1
(g2
(I0
tp6533
g4
tp6534
Rp6535
(I1
(I1
tp6536
g11
I00
S'\x1e\xdcI='
p6537
tp6538
bag1
(g2
(I0
tp6539
g4
tp6540
Rp6541
(I1
(I1
tp6542
g11
I00
S'\xfd\xdbI='
p6543
tp6544
bag1
(g2
(I0
tp6545
g4
tp6546
Rp6547
(I1
(I1
tp6548
g11
I00
S'\xd9\xdbI='
p6549
tp6550
bag1
(g2
(I0
tp6551
g4
tp6552
Rp6553
(I1
(I1
tp6554
g11
I00
S'\xb7\xdbI='
p6555
tp6556
bag1
(g2
(I0
tp6557
g4
tp6558
Rp6559
(I1
(I1
tp6560
g11
I00
S'\x95\xdbI='
p6561
tp6562
bag1
(g2
(I0
tp6563
g4
tp6564
Rp6565
(I1
(I1
tp6566
g11
I00
S'u\xdbI='
p6567
tp6568
bag1
(g2
(I0
tp6569
g4
tp6570
Rp6571
(I1
(I1
tp6572
g11
I00
S'W\xdbI='
p6573
tp6574
bag1
(g2
(I0
tp6575
g4
tp6576
Rp6577
(I1
(I1
tp6578
g11
I00
S'8\xdbI='
p6579
tp6580
bag1
(g2
(I0
tp6581
g4
tp6582
Rp6583
(I1
(I1
tp6584
g11
I00
S'\x1b\xdbI='
p6585
tp6586
bag1
(g2
(I0
tp6587
g4
tp6588
Rp6589
(I1
(I1
tp6590
g11
I00
S'\xfc\xdaI='
p6591
tp6592
bag1
(g2
(I0
tp6593
g4
tp6594
Rp6595
(I1
(I1
tp6596
g11
I00
S'\xdf\xdaI='
p6597
tp6598
bag1
(g2
(I0
tp6599
g4
tp6600
Rp6601
(I1
(I1
tp6602
g11
I00
S'\xc4\xdaI='
p6603
tp6604
bag1
(g2
(I0
tp6605
g4
tp6606
Rp6607
(I1
(I1
tp6608
g11
I00
S'\xaa\xdaI='
p6609
tp6610
bag1
(g2
(I0
tp6611
g4
tp6612
Rp6613
(I1
(I1
tp6614
g11
I00
S'\x8c\xdaI='
p6615
tp6616
bag1
(g2
(I0
tp6617
g4
tp6618
Rp6619
(I1
(I1
tp6620
g11
I00
S'q\xdaI='
p6621
tp6622
bag1
(g2
(I0
tp6623
g4
tp6624
Rp6625
(I1
(I1
tp6626
g11
I00
S'X\xdaI='
p6627
tp6628
bag1
(g2
(I0
tp6629
g4
tp6630
Rp6631
(I1
(I1
tp6632
g11
I00
S'>\xdaI='
p6633
tp6634
bag1
(g2
(I0
tp6635
g4
tp6636
Rp6637
(I1
(I1
tp6638
g11
I00
S'$\xdaI='
p6639
tp6640
bag1
(g2
(I0
tp6641
g4
tp6642
Rp6643
(I1
(I1
tp6644
g11
I00
S'\r\xdaI='
p6645
tp6646
bag1
(g2
(I0
tp6647
g4
tp6648
Rp6649
(I1
(I1
tp6650
g11
I00
S'\xf3\xd9I='
p6651
tp6652
bag1
(g2
(I0
tp6653
g4
tp6654
Rp6655
(I1
(I1
tp6656
g11
I00
S'\xda\xd9I='
p6657
tp6658
bag1
(g2
(I0
tp6659
g4
tp6660
Rp6661
(I1
(I1
tp6662
g11
I00
S'\xc4\xd9I='
p6663
tp6664
bag1
(g2
(I0
tp6665
g4
tp6666
Rp6667
(I1
(I1
tp6668
g11
I00
S'\xae\xd9I='
p6669
tp6670
bag1
(g2
(I0
tp6671
g4
tp6672
Rp6673
(I1
(I1
tp6674
g11
I00
S'\x95\xd9I='
p6675
tp6676
bag1
(g2
(I0
tp6677
g4
tp6678
Rp6679
(I1
(I1
tp6680
g11
I00
S'~\xd9I='
p6681
tp6682
bag1
(g2
(I0
tp6683
g4
tp6684
Rp6685
(I1
(I1
tp6686
g11
I00
S'i\xd9I='
p6687
tp6688
bag1
(g2
(I0
tp6689
g4
tp6690
Rp6691
(I1
(I1
tp6692
g11
I00
S'S\xd9I='
p6693
tp6694
bag1
(g2
(I0
tp6695
g4
tp6696
Rp6697
(I1
(I1
tp6698
g11
I00
S'<\xd9I='
p6699
tp6700
bag1
(g2
(I0
tp6701
g4
tp6702
Rp6703
(I1
(I1
tp6704
g11
I00
S'$\xd9I='
p6705
tp6706
bag1
(g2
(I0
tp6707
g4
tp6708
Rp6709
(I1
(I1
tp6710
g11
I00
S'\r\xd9I='
p6711
tp6712
bag1
(g2
(I0
tp6713
g4
tp6714
Rp6715
(I1
(I1
tp6716
g11
I00
S'\xfa\xd8I='
p6717
tp6718
bag1
(g2
(I0
tp6719
g4
tp6720
Rp6721
(I1
(I1
tp6722
g11
I00
S'\xe4\xd8I='
p6723
tp6724
bag1
(g2
(I0
tp6725
g4
tp6726
Rp6727
(I1
(I1
tp6728
g11
I00
S'\xcf\xd8I='
p6729
tp6730
bag1
(g2
(I0
tp6731
g4
tp6732
Rp6733
(I1
(I1
tp6734
g11
I00
S'\xbb\xd8I='
p6735
tp6736
bag1
(g2
(I0
tp6737
g4
tp6738
Rp6739
(I1
(I1
tp6740
g11
I00
S'\xa8\xd8I='
p6741
tp6742
bag1
(g2
(I0
tp6743
g4
tp6744
Rp6745
(I1
(I1
tp6746
g11
I00
S'\x94\xd8I='
p6747
tp6748
bag1
(g2
(I0
tp6749
g4
tp6750
Rp6751
(I1
(I1
tp6752
g11
I00
S'\x7f\xd8I='
p6753
tp6754
bag1
(g2
(I0
tp6755
g4
tp6756
Rp6757
(I1
(I1
tp6758
g11
I00
S'k\xd8I='
p6759
tp6760
bag1
(g2
(I0
tp6761
g4
tp6762
Rp6763
(I1
(I1
tp6764
g11
I00
S'Y\xd8I='
p6765
tp6766
bag1
(g2
(I0
tp6767
g4
tp6768
Rp6769
(I1
(I1
tp6770
g11
I00
S'E\xd8I='
p6771
tp6772
bag1
(g2
(I0
tp6773
g4
tp6774
Rp6775
(I1
(I1
tp6776
g11
I00
S'1\xd8I='
p6777
tp6778
bag1
(g2
(I0
tp6779
g4
tp6780
Rp6781
(I1
(I1
tp6782
g11
I00
S'!\xd8I='
p6783
tp6784
bag1
(g2
(I0
tp6785
g4
tp6786
Rp6787
(I1
(I1
tp6788
g11
I00
S'\r\xd8I='
p6789
tp6790
bag1
(g2
(I0
tp6791
g4
tp6792
Rp6793
(I1
(I1
tp6794
g11
I00
S'\xf9\xd7I='
p6795
tp6796
bag1
(g2
(I0
tp6797
g4
tp6798
Rp6799
(I1
(I1
tp6800
g11
I00
S'\xe8\xd7I='
p6801
tp6802
bag1
(g2
(I0
tp6803
g4
tp6804
Rp6805
(I1
(I1
tp6806
g11
I00
S'\xd7\xd7I='
p6807
tp6808
bag1
(g2
(I0
tp6809
g4
tp6810
Rp6811
(I1
(I1
tp6812
g11
I00
S'\xc3\xd7I='
p6813
tp6814
bag1
(g2
(I0
tp6815
g4
tp6816
Rp6817
(I1
(I1
tp6818
g11
I00
S'\xae\xd7I='
p6819
tp6820
bag1
(g2
(I0
tp6821
g4
tp6822
Rp6823
(I1
(I1
tp6824
g11
I00
S'\xa0\xd7I='
p6825
tp6826
bag1
(g2
(I0
tp6827
g4
tp6828
Rp6829
(I1
(I1
tp6830
g11
I00
S'\x8d\xd7I='
p6831
tp6832
bag1
(g2
(I0
tp6833
g4
tp6834
Rp6835
(I1
(I1
tp6836
g11
I00
S'{\xd7I='
p6837
tp6838
bag1
(g2
(I0
tp6839
g4
tp6840
Rp6841
(I1
(I1
tp6842
g11
I00
S'k\xd7I='
p6843
tp6844
bag1
(g2
(I0
tp6845
g4
tp6846
Rp6847
(I1
(I1
tp6848
g11
I00
S'X\xd7I='
p6849
tp6850
bag1
(g2
(I0
tp6851
g4
tp6852
Rp6853
(I1
(I1
tp6854
g11
I00
S'J\xd7I='
p6855
tp6856
bag1
(g2
(I0
tp6857
g4
tp6858
Rp6859
(I1
(I1
tp6860
g11
I00
S'9\xd7I='
p6861
tp6862
bag1
(g2
(I0
tp6863
g4
tp6864
Rp6865
(I1
(I1
tp6866
g11
I00
S'%\xd7I='
p6867
tp6868
bag1
(g2
(I0
tp6869
g4
tp6870
Rp6871
(I1
(I1
tp6872
g11
I00
S'\x17\xd7I='
p6873
tp6874
bag1
(g2
(I0
tp6875
g4
tp6876
Rp6877
(I1
(I1
tp6878
g11
I00
S'\x08\xd7I='
p6879
tp6880
bag1
(g2
(I0
tp6881
g4
tp6882
Rp6883
(I1
(I1
tp6884
g11
I00
S'\xf8\xd6I='
p6885
tp6886
bag1
(g2
(I0
tp6887
g4
tp6888
Rp6889
(I1
(I1
tp6890
g11
I00
S'\xe6\xd6I='
p6891
tp6892
bag1
(g2
(I0
tp6893
g4
tp6894
Rp6895
(I1
(I1
tp6896
g11
I00
S'\xd6\xd6I='
p6897
tp6898
bag1
(g2
(I0
tp6899
g4
tp6900
Rp6901
(I1
(I1
tp6902
g11
I00
S'\xc5\xd6I='
p6903
tp6904
bag1
(g2
(I0
tp6905
g4
tp6906
Rp6907
(I1
(I1
tp6908
g11
I00
S'\xb5\xd6I='
p6909
tp6910
bag1
(g2
(I0
tp6911
g4
tp6912
Rp6913
(I1
(I1
tp6914
g11
I00
S'\xa5\xd6I='
p6915
tp6916
bag1
(g2
(I0
tp6917
g4
tp6918
Rp6919
(I1
(I1
tp6920
g11
I00
S'\x96\xd6I='
p6921
tp6922
bag1
(g2
(I0
tp6923
g4
tp6924
Rp6925
(I1
(I1
tp6926
g11
I00
S'\x8a\xd6I='
p6927
tp6928
bag1
(g2
(I0
tp6929
g4
tp6930
Rp6931
(I1
(I1
tp6932
g11
I00
S'{\xd6I='
p6933
tp6934
bag1
(g2
(I0
tp6935
g4
tp6936
Rp6937
(I1
(I1
tp6938
g11
I00
S'k\xd6I='
p6939
tp6940
bag1
(g2
(I0
tp6941
g4
tp6942
Rp6943
(I1
(I1
tp6944
g11
I00
S'Z\xd6I='
p6945
tp6946
bag1
(g2
(I0
tp6947
g4
tp6948
Rp6949
(I1
(I1
tp6950
g11
I00
S'L\xd6I='
p6951
tp6952
bag1
(g2
(I0
tp6953
g4
tp6954
Rp6955
(I1
(I1
tp6956
g11
I00
S'=\xd6I='
p6957
tp6958
bag1
(g2
(I0
tp6959
g4
tp6960
Rp6961
(I1
(I1
tp6962
g11
I00
S'/\xd6I='
p6963
tp6964
bag1
(g2
(I0
tp6965
g4
tp6966
Rp6967
(I1
(I1
tp6968
g11
I00
S'!\xd6I='
p6969
tp6970
bag1
(g2
(I0
tp6971
g4
tp6972
Rp6973
(I1
(I1
tp6974
g11
I00
S'\x12\xd6I='
p6975
tp6976
bag1
(g2
(I0
tp6977
g4
tp6978
Rp6979
(I1
(I1
tp6980
g11
I00
S'\x06\xd6I='
p6981
tp6982
bag1
(g2
(I0
tp6983
g4
tp6984
Rp6985
(I1
(I1
tp6986
g11
I00
S'\xf6\xd5I='
p6987
tp6988
bag1
(g2
(I0
tp6989
g4
tp6990
Rp6991
(I1
(I1
tp6992
g11
I00
S'\xe6\xd5I='
p6993
tp6994
bag1
(g2
(I0
tp6995
g4
tp6996
Rp6997
(I1
(I1
tp6998
g11
I00
S'\xda\xd5I='
p6999
tp7000
bag1
(g2
(I0
tp7001
g4
tp7002
Rp7003
(I1
(I1
tp7004
g11
I00
S'\xcb\xd5I='
p7005
tp7006
bag1
(g2
(I0
tp7007
g4
tp7008
Rp7009
(I1
(I1
tp7010
g11
I00
S'\xc0\xd5I='
p7011
tp7012
bag1
(g2
(I0
tp7013
g4
tp7014
Rp7015
(I1
(I1
tp7016
g11
I00
S'\xb3\xd5I='
p7017
tp7018
bag1
(g2
(I0
tp7019
g4
tp7020
Rp7021
(I1
(I1
tp7022
g11
I00
S'\xa3\xd5I='
p7023
tp7024
bag1
(g2
(I0
tp7025
g4
tp7026
Rp7027
(I1
(I1
tp7028
g11
I00
S'\x98\xd5I='
p7029
tp7030
bag1
(g2
(I0
tp7031
g4
tp7032
Rp7033
(I1
(I1
tp7034
g11
I00
S'\x8a\xd5I='
p7035
tp7036
bag1
(g2
(I0
tp7037
g4
tp7038
Rp7039
(I1
(I1
tp7040
g11
I00
S'~\xd5I='
p7041
tp7042
bag1
(g2
(I0
tp7043
g4
tp7044
Rp7045
(I1
(I1
tp7046
g11
I00
S'p\xd5I='
p7047
tp7048
bag1
(g2
(I0
tp7049
g4
tp7050
Rp7051
(I1
(I1
tp7052
g11
I00
S'b\xd5I='
p7053
tp7054
bag1
(g2
(I0
tp7055
g4
tp7056
Rp7057
(I1
(I1
tp7058
g11
I00
S'V\xd5I='
p7059
tp7060
bag1
(g2
(I0
tp7061
g4
tp7062
Rp7063
(I1
(I1
tp7064
g11
I00
S'G\xd5I='
p7065
tp7066
bag1
(g2
(I0
tp7067
g4
tp7068
Rp7069
(I1
(I1
tp7070
g11
I00
S'>\xd5I='
p7071
tp7072
bag1
(g2
(I0
tp7073
g4
tp7074
Rp7075
(I1
(I1
tp7076
g11
I00
S'1\xd5I='
p7077
tp7078
bag1
(g2
(I0
tp7079
g4
tp7080
Rp7081
(I1
(I1
tp7082
g11
I00
S'$\xd5I='
p7083
tp7084
bag1
(g2
(I0
tp7085
g4
tp7086
Rp7087
(I1
(I1
tp7088
g11
I00
S'\x17\xd5I='
p7089
tp7090
bag1
(g2
(I0
tp7091
g4
tp7092
Rp7093
(I1
(I1
tp7094
g11
I00
S'\x0c\xd5I='
p7095
tp7096
bag1
(g2
(I0
tp7097
g4
tp7098
Rp7099
(I1
(I1
tp7100
g11
I00
S'\xfd\xd4I='
p7101
tp7102
bag1
(g2
(I0
tp7103
g4
tp7104
Rp7105
(I1
(I1
tp7106
g11
I00
S'\xf4\xd4I='
p7107
tp7108
bag1
(g2
(I0
tp7109
g4
tp7110
Rp7111
(I1
(I1
tp7112
g11
I00
S'\xe9\xd4I='
p7113
tp7114
bag1
(g2
(I0
tp7115
g4
tp7116
Rp7117
(I1
(I1
tp7118
g11
I00
S'\xdb\xd4I='
p7119
tp7120
bag1
(g2
(I0
tp7121
g4
tp7122
Rp7123
(I1
(I1
tp7124
g11
I00
S'\xce\xd4I='
p7125
tp7126
bag1
(g2
(I0
tp7127
g4
tp7128
Rp7129
(I1
(I1
tp7130
g11
I00
S'\xc3\xd4I='
p7131
tp7132
bag1
(g2
(I0
tp7133
g4
tp7134
Rp7135
(I1
(I1
tp7136
g11
I00
S'\xbb\xd4I='
p7137
tp7138
bag1
(g2
(I0
tp7139
g4
tp7140
Rp7141
(I1
(I1
tp7142
g11
I00
S'\xad\xd4I='
p7143
tp7144
bag1
(g2
(I0
tp7145
g4
tp7146
Rp7147
(I1
(I1
tp7148
g11
I00
S'\xa3\xd4I='
p7149
tp7150
bag1
(g2
(I0
tp7151
g4
tp7152
Rp7153
(I1
(I1
tp7154
g11
I00
S'\x95\xd4I='
p7155
tp7156
bag1
(g2
(I0
tp7157
g4
tp7158
Rp7159
(I1
(I1
tp7160
g11
I00
S'\x8e\xd4I='
p7161
tp7162
bag1
(g2
(I0
tp7163
g4
tp7164
Rp7165
(I1
(I1
tp7166
g11
I00
S'\x80\xd4I='
p7167
tp7168
bag1
(g2
(I0
tp7169
g4
tp7170
Rp7171
(I1
(I1
tp7172
g11
I00
S'v\xd4I='
p7173
tp7174
bag1
(g2
(I0
tp7175
g4
tp7176
Rp7177
(I1
(I1
tp7178
g11
I00
S'l\xd4I='
p7179
tp7180
bag1
(g2
(I0
tp7181
g4
tp7182
Rp7183
(I1
(I1
tp7184
g11
I00
S'a\xd4I='
p7185
tp7186
bag1
(g2
(I0
tp7187
g4
tp7188
Rp7189
(I1
(I1
tp7190
g11
I00
S'T\xd4I='
p7191
tp7192
bag1
(g2
(I0
tp7193
g4
tp7194
Rp7195
(I1
(I1
tp7196
g11
I00
S'K\xd4I='
p7197
tp7198
bag1
(g2
(I0
tp7199
g4
tp7200
Rp7201
(I1
(I1
tp7202
g11
I00
S'>\xd4I='
p7203
tp7204
bag1
(g2
(I0
tp7205
g4
tp7206
Rp7207
(I1
(I1
tp7208
g11
I00
S'5\xd4I='
p7209
tp7210
bag1
(g2
(I0
tp7211
g4
tp7212
Rp7213
(I1
(I1
tp7214
g11
I00
S',\xd4I='
p7215
tp7216
bag1
(g2
(I0
tp7217
g4
tp7218
Rp7219
(I1
(I1
tp7220
g11
I00
S'!\xd4I='
p7221
tp7222
bag1
(g2
(I0
tp7223
g4
tp7224
Rp7225
(I1
(I1
tp7226
g11
I00
S'\x17\xd4I='
p7227
tp7228
bag1
(g2
(I0
tp7229
g4
tp7230
Rp7231
(I1
(I1
tp7232
g11
I00
S'\r\xd4I='
p7233
tp7234
bag1
(g2
(I0
tp7235
g4
tp7236
Rp7237
(I1
(I1
tp7238
g11
I00
S'\xfe\xd3I='
p7239
tp7240
bag1
(g2
(I0
tp7241
g4
tp7242
Rp7243
(I1
(I1
tp7244
g11
I00
S'\xf8\xd3I='
p7245
tp7246
bag1
(g2
(I0
tp7247
g4
tp7248
Rp7249
(I1
(I1
tp7250
g11
I00
S'\xed\xd3I='
p7251
tp7252
bag1
(g2
(I0
tp7253
g4
tp7254
Rp7255
(I1
(I1
tp7256
g11
I00
S'\xe2\xd3I='
p7257
tp7258
bag1
(g2
(I0
tp7259
g4
tp7260
Rp7261
(I1
(I1
tp7262
g11
I00
S'\xda\xd3I='
p7263
tp7264
bag1
(g2
(I0
tp7265
g4
tp7266
Rp7267
(I1
(I1
tp7268
g11
I00
S'\xd1\xd3I='
p7269
tp7270
bag1
(g2
(I0
tp7271
g4
tp7272
Rp7273
(I1
(I1
tp7274
g11
I00
S'\xc8\xd3I='
p7275
tp7276
bag1
(g2
(I0
tp7277
g4
tp7278
Rp7279
(I1
(I1
tp7280
g11
I00
S'\xbd\xd3I='
p7281
tp7282
bag1
(g2
(I0
tp7283
g4
tp7284
Rp7285
(I1
(I1
tp7286
g11
I00
S'\xb2\xd3I='
p7287
tp7288
bag1
(g2
(I0
tp7289
g4
tp7290
Rp7291
(I1
(I1
tp7292
g11
I00
S'\xa9\xd3I='
p7293
tp7294
bag1
(g2
(I0
tp7295
g4
tp7296
Rp7297
(I1
(I1
tp7298
g11
I00
S'\xa0\xd3I='
p7299
tp7300
bag1
(g2
(I0
tp7301
g4
tp7302
Rp7303
(I1
(I1
tp7304
g11
I00
S'\x97\xd3I='
p7305
tp7306
bag1
(g2
(I0
tp7307
g4
tp7308
Rp7309
(I1
(I1
tp7310
g11
I00
S'\x8d\xd3I='
p7311
tp7312
bag1
(g2
(I0
tp7313
g4
tp7314
Rp7315
(I1
(I1
tp7316
g11
I00
S'\x86\xd3I='
p7317
tp7318
bag1
(g2
(I0
tp7319
g4
tp7320
Rp7321
(I1
(I1
tp7322
g11
I00
S'|\xd3I='
p7323
tp7324
bag1
(g2
(I0
tp7325
g4
tp7326
Rp7327
(I1
(I1
tp7328
g11
I00
S'q\xd3I='
p7329
tp7330
bag1
(g2
(I0
tp7331
g4
tp7332
Rp7333
(I1
(I1
tp7334
g11
I00
S'l\xd3I='
p7335
tp7336
bag1
(g2
(I0
tp7337
g4
tp7338
Rp7339
(I1
(I1
tp7340
g11
I00
S'b\xd3I='
p7341
tp7342
bag1
(g2
(I0
tp7343
g4
tp7344
Rp7345
(I1
(I1
tp7346
g11
I00
S'[\xd3I='
p7347
tp7348
bag1
(g2
(I0
tp7349
g4
tp7350
Rp7351
(I1
(I1
tp7352
g11
I00
S'N\xd3I='
p7353
tp7354
bag1
(g2
(I0
tp7355
g4
tp7356
Rp7357
(I1
(I1
tp7358
g11
I00
S'F\xd3I='
p7359
tp7360
bag1
(g2
(I0
tp7361
g4
tp7362
Rp7363
(I1
(I1
tp7364
g11
I00
S'?\xd3I='
p7365
tp7366
bag1
(g2
(I0
tp7367
g4
tp7368
Rp7369
(I1
(I1
tp7370
g11
I00
S'7\xd3I='
p7371
tp7372
bag1
(g2
(I0
tp7373
g4
tp7374
Rp7375
(I1
(I1
tp7376
g11
I00
S'*\xd3I='
p7377
tp7378
bag1
(g2
(I0
tp7379
g4
tp7380
Rp7381
(I1
(I1
tp7382
g11
I00
S'%\xd3I='
p7383
tp7384
bag1
(g2
(I0
tp7385
g4
tp7386
Rp7387
(I1
(I1
tp7388
g11
I00
S'\x1c\xd3I='
p7389
tp7390
bag1
(g2
(I0
tp7391
g4
tp7392
Rp7393
(I1
(I1
tp7394
g11
I00
S'\x12\xd3I='
p7395
tp7396
bag1
(g2
(I0
tp7397
g4
tp7398
Rp7399
(I1
(I1
tp7400
g11
I00
S'\n\xd3I='
p7401
tp7402
bag1
(g2
(I0
tp7403
g4
tp7404
Rp7405
(I1
(I1
tp7406
g11
I00
S'\x03\xd3I='
p7407
tp7408
bag1
(g2
(I0
tp7409
g4
tp7410
Rp7411
(I1
(I1
tp7412
g11
I00
S'\xf9\xd2I='
p7413
tp7414
bag1
(g2
(I0
tp7415
g4
tp7416
Rp7417
(I1
(I1
tp7418
g11
I00
S'\xf3\xd2I='
p7419
tp7420
bag1
(g2
(I0
tp7421
g4
tp7422
Rp7423
(I1
(I1
tp7424
g11
I00
S'\xe9\xd2I='
p7425
tp7426
bag1
(g2
(I0
tp7427
g4
tp7428
Rp7429
(I1
(I1
tp7430
g11
I00
S'\xe3\xd2I='
p7431
tp7432
bag1
(g2
(I0
tp7433
g4
tp7434
Rp7435
(I1
(I1
tp7436
g11
I00
S'\xda\xd2I='
p7437
tp7438
bag1
(g2
(I0
tp7439
g4
tp7440
Rp7441
(I1
(I1
tp7442
g11
I00
S'\xd2\xd2I='
p7443
tp7444
bag1
(g2
(I0
tp7445
g4
tp7446
Rp7447
(I1
(I1
tp7448
g11
I00
S'\xcb\xd2I='
p7449
tp7450
bag1
(g2
(I0
tp7451
g4
tp7452
Rp7453
(I1
(I1
tp7454
g11
I00
S'\xc2\xd2I='
p7455
tp7456
bag1
(g2
(I0
tp7457
g4
tp7458
Rp7459
(I1
(I1
tp7460
g11
I00
S'\xbb\xd2I='
p7461
tp7462
bag1
(g2
(I0
tp7463
g4
tp7464
Rp7465
(I1
(I1
tp7466
g11
I00
S'\xb3\xd2I='
p7467
tp7468
bag1
(g2
(I0
tp7469
g4
tp7470
Rp7471
(I1
(I1
tp7472
g11
I00
S'\xa9\xd2I='
p7473
tp7474
bag1
(g2
(I0
tp7475
g4
tp7476
Rp7477
(I1
(I1
tp7478
g11
I00
S'\xa3\xd2I='
p7479
tp7480
bag1
(g2
(I0
tp7481
g4
tp7482
Rp7483
(I1
(I1
tp7484
g11
I00
S'\x9e\xd2I='
p7485
tp7486
bag1
(g2
(I0
tp7487
g4
tp7488
Rp7489
(I1
(I1
tp7490
g11
I00
S'\x95\xd2I='
p7491
tp7492
bag1
(g2
(I0
tp7493
g4
tp7494
Rp7495
(I1
(I1
tp7496
g11
I00
S'\x8d\xd2I='
p7497
tp7498
bag1
(g2
(I0
tp7499
g4
tp7500
Rp7501
(I1
(I1
tp7502
g11
I00
S'\x85\xd2I='
p7503
tp7504
bag1
(g2
(I0
tp7505
g4
tp7506
Rp7507
(I1
(I1
tp7508
g11
I00
S'\x80\xd2I='
p7509
tp7510
bag1
(g2
(I0
tp7511
g4
tp7512
Rp7513
(I1
(I1
tp7514
g11
I00
S't\xd2I='
p7515
tp7516
bag1
(g2
(I0
tp7517
g4
tp7518
Rp7519
(I1
(I1
tp7520
g11
I00
S'q\xd2I='
p7521
tp7522
bag1
(g2
(I0
tp7523
g4
tp7524
Rp7525
(I1
(I1
tp7526
g11
I00
S'i\xd2I='
p7527
tp7528
bag1
(g2
(I0
tp7529
g4
tp7530
Rp7531
(I1
(I1
tp7532
g11
I00
S'`\xd2I='
p7533
tp7534
bag1
(g2
(I0
tp7535
g4
tp7536
Rp7537
(I1
(I1
tp7538
g11
I00
S'W\xd2I='
p7539
tp7540
bag1
(g2
(I0
tp7541
g4
tp7542
Rp7543
(I1
(I1
tp7544
g11
I00
S'S\xd2I='
p7545
tp7546
bag1
(g2
(I0
tp7547
g4
tp7548
Rp7549
(I1
(I1
tp7550
g11
I00
S'K\xd2I='
p7551
tp7552
bag1
(g2
(I0
tp7553
g4
tp7554
Rp7555
(I1
(I1
tp7556
g11
I00
S'C\xd2I='
p7557
tp7558
bag1
(g2
(I0
tp7559
g4
tp7560
Rp7561
(I1
(I1
tp7562
g11
I00
S'?\xd2I='
p7563
tp7564
bag1
(g2
(I0
tp7565
g4
tp7566
Rp7567
(I1
(I1
tp7568
g11
I00
S'6\xd2I='
p7569
tp7570
bag1
(g2
(I0
tp7571
g4
tp7572
Rp7573
(I1
(I1
tp7574
g11
I00
S'0\xd2I='
p7575
tp7576
bag1
(g2
(I0
tp7577
g4
tp7578
Rp7579
(I1
(I1
tp7580
g11
I00
S'+\xd2I='
p7581
tp7582
bag1
(g2
(I0
tp7583
g4
tp7584
Rp7585
(I1
(I1
tp7586
g11
I00
S'"\xd2I='
p7587
tp7588
bag1
(g2
(I0
tp7589
g4
tp7590
Rp7591
(I1
(I1
tp7592
g11
I00
S'\x1d\xd2I='
p7593
tp7594
bag1
(g2
(I0
tp7595
g4
tp7596
Rp7597
(I1
(I1
tp7598
g11
I00
S'\x14\xd2I='
p7599
tp7600
bag1
(g2
(I0
tp7601
g4
tp7602
Rp7603
(I1
(I1
tp7604
g11
I00
S'\x0f\xd2I='
p7605
tp7606
bag1
(g2
(I0
tp7607
g4
tp7608
Rp7609
(I1
(I1
tp7610
g11
I00
S'\t\xd2I='
p7611
tp7612
bag1
(g2
(I0
tp7613
g4
tp7614
Rp7615
(I1
(I1
tp7616
g11
I00
S'\x02\xd2I='
p7617
tp7618
bag1
(g2
(I0
tp7619
g4
tp7620
Rp7621
(I1
(I1
tp7622
g11
I00
S'\xfa\xd1I='
p7623
tp7624
bag1
(g2
(I0
tp7625
g4
tp7626
Rp7627
(I1
(I1
tp7628
g11
I00
S'\xf6\xd1I='
p7629
tp7630
bag1
(g2
(I0
tp7631
g4
tp7632
Rp7633
(I1
(I1
tp7634
g11
I00
S'\xf0\xd1I='
p7635
tp7636
bag1
(g2
(I0
tp7637
g4
tp7638
Rp7639
(I1
(I1
tp7640
g11
I00
S'\xe8\xd1I='
p7641
tp7642
bag1
(g2
(I0
tp7643
g4
tp7644
Rp7645
(I1
(I1
tp7646
g11
I00
S'\xe2\xd1I='
p7647
tp7648
bag1
(g2
(I0
tp7649
g4
tp7650
Rp7651
(I1
(I1
tp7652
g11
I00
S'\xdc\xd1I='
p7653
tp7654
bag1
(g2
(I0
tp7655
g4
tp7656
Rp7657
(I1
(I1
tp7658
g11
I00
S'\xd6\xd1I='
p7659
tp7660
bag1
(g2
(I0
tp7661
g4
tp7662
Rp7663
(I1
(I1
tp7664
g11
I00
S'\xcf\xd1I='
p7665
tp7666
bag1
(g2
(I0
tp7667
g4
tp7668
Rp7669
(I1
(I1
tp7670
g11
I00
S'\xc8\xd1I='
p7671
tp7672
bag1
(g2
(I0
tp7673
g4
tp7674
Rp7675
(I1
(I1
tp7676
g11
I00
S'\xc2\xd1I='
p7677
tp7678
bag1
(g2
(I0
tp7679
g4
tp7680
Rp7681
(I1
(I1
tp7682
g11
I00
S'\xbe\xd1I='
p7683
tp7684
bag1
(g2
(I0
tp7685
g4
tp7686
Rp7687
(I1
(I1
tp7688
g11
I00
S'\xb4\xd1I='
p7689
tp7690
bag1
(g2
(I0
tp7691
g4
tp7692
Rp7693
(I1
(I1
tp7694
g11
I00
S'\xb0\xd1I='
p7695
tp7696
bag1
(g2
(I0
tp7697
g4
tp7698
Rp7699
(I1
(I1
tp7700
g11
I00
S'\xaa\xd1I='
p7701
tp7702
bag1
(g2
(I0
tp7703
g4
tp7704
Rp7705
(I1
(I1
tp7706
g11
I00
S'\xa6\xd1I='
p7707
tp7708
bag1
(g2
(I0
tp7709
g4
tp7710
Rp7711
(I1
(I1
tp7712
g11
I00
S'\x9e\xd1I='
p7713
tp7714
bag1
(g2
(I0
tp7715
g4
tp7716
Rp7717
(I1
(I1
tp7718
g11
I00
S'\x9a\xd1I='
p7719
tp7720
bag1
(g2
(I0
tp7721
g4
tp7722
Rp7723
(I1
(I1
tp7724
g11
I00
S'\x94\xd1I='
p7725
tp7726
bag1
(g2
(I0
tp7727
g4
tp7728
Rp7729
(I1
(I1
tp7730
g11
I00
S'\x90\xd1I='
p7731
tp7732
bag1
(g2
(I0
tp7733
g4
tp7734
Rp7735
(I1
(I1
tp7736
g11
I00
S'\x88\xd1I='
p7737
tp7738
bag1
(g2
(I0
tp7739
g4
tp7740
Rp7741
(I1
(I1
tp7742
g11
I00
S'\x85\xd1I='
p7743
tp7744
bag1
(g2
(I0
tp7745
g4
tp7746
Rp7747
(I1
(I1
tp7748
g11
I00
S'{\xd1I='
p7749
tp7750
bag1
(g2
(I0
tp7751
g4
tp7752
Rp7753
(I1
(I1
tp7754
g11
I00
S'z\xd1I='
p7755
tp7756
bag1
(g2
(I0
tp7757
g4
tp7758
Rp7759
(I1
(I1
tp7760
g11
I00
S'r\xd1I='
p7761
tp7762
bag1
(g2
(I0
tp7763
g4
tp7764
Rp7765
(I1
(I1
tp7766
g11
I00
S'l\xd1I='
p7767
tp7768
bag1
(g2
(I0
tp7769
g4
tp7770
Rp7771
(I1
(I1
tp7772
g11
I00
S'h\xd1I='
p7773
tp7774
bag1
(g2
(I0
tp7775
g4
tp7776
Rp7777
(I1
(I1
tp7778
g11
I00
S'a\xd1I='
p7779
tp7780
bag1
(g2
(I0
tp7781
g4
tp7782
Rp7783
(I1
(I1
tp7784
g11
I00
S'Z\xd1I='
p7785
tp7786
bag1
(g2
(I0
tp7787
g4
tp7788
Rp7789
(I1
(I1
tp7790
g11
I00
S'S\xd1I='
p7791
tp7792
bag1
(g2
(I0
tp7793
g4
tp7794
Rp7795
(I1
(I1
tp7796
g11
I00
S'O\xd1I='
p7797
tp7798
bag1
(g2
(I0
tp7799
g4
tp7800
Rp7801
(I1
(I1
tp7802
g11
I00
S'L\xd1I='
p7803
tp7804
bag1
(g2
(I0
tp7805
g4
tp7806
Rp7807
(I1
(I1
tp7808
g11
I00
S'F\xd1I='
p7809
tp7810
bag1
(g2
(I0
tp7811
g4
tp7812
Rp7813
(I1
(I1
tp7814
g11
I00
S'?\xd1I='
p7815
tp7816
bag1
(g2
(I0
tp7817
g4
tp7818
Rp7819
(I1
(I1
tp7820
g11
I00
S':\xd1I='
p7821
tp7822
bag1
(g2
(I0
tp7823
g4
tp7824
Rp7825
(I1
(I1
tp7826
g11
I00
S'6\xd1I='
p7827
tp7828
bag1
(g2
(I0
tp7829
g4
tp7830
Rp7831
(I1
(I1
tp7832
g11
I00
S'2\xd1I='
p7833
tp7834
bag1
(g2
(I0
tp7835
g4
tp7836
Rp7837
(I1
(I1
tp7838
g11
I00
S'*\xd1I='
p7839
tp7840
bag1
(g2
(I0
tp7841
g4
tp7842
Rp7843
(I1
(I1
tp7844
g11
I00
S'$\xd1I='
p7845
tp7846
bag1
(g2
(I0
tp7847
g4
tp7848
Rp7849
(I1
(I1
tp7850
g11
I00
S'!\xd1I='
p7851
tp7852
bag1
(g2
(I0
tp7853
g4
tp7854
Rp7855
(I1
(I1
tp7856
g11
I00
S'\x1d\xd1I='
p7857
tp7858
bag1
(g2
(I0
tp7859
g4
tp7860
Rp7861
(I1
(I1
tp7862
g11
I00
S'\x17\xd1I='
p7863
tp7864
bag1
(g2
(I0
tp7865
g4
tp7866
Rp7867
(I1
(I1
tp7868
g11
I00
S'\x13\xd1I='
p7869
tp7870
bag1
(g2
(I0
tp7871
g4
tp7872
Rp7873
(I1
(I1
tp7874
g11
I00
S'\x0f\xd1I='
p7875
tp7876
bag1
(g2
(I0
tp7877
g4
tp7878
Rp7879
(I1
(I1
tp7880
g11
I00
S'\x06\xd1I='
p7881
tp7882
bag1
(g2
(I0
tp7883
g4
tp7884
Rp7885
(I1
(I1
tp7886
g11
I00
S'\x04\xd1I='
p7887
tp7888
bag1
(g2
(I0
tp7889
g4
tp7890
Rp7891
(I1
(I1
tp7892
g11
I00
S'\x01\xd1I='
p7893
tp7894
bag1
(g2
(I0
tp7895
g4
tp7896
Rp7897
(I1
(I1
tp7898
g11
I00
S'\xfc\xd0I='
p7899
tp7900
bag1
(g2
(I0
tp7901
g4
tp7902
Rp7903
(I1
(I1
tp7904
g11
I00
S'\xf3\xd0I='
p7905
tp7906
bag1
(g2
(I0
tp7907
g4
tp7908
Rp7909
(I1
(I1
tp7910
g11
I00
S'\xef\xd0I='
p7911
tp7912
bag1
(g2
(I0
tp7913
g4
tp7914
Rp7915
(I1
(I1
tp7916
g11
I00
S'\xed\xd0I='
p7917
tp7918
bag1
(g2
(I0
tp7919
g4
tp7920
Rp7921
(I1
(I1
tp7922
g11
I00
S'\xe7\xd0I='
p7923
tp7924
bag1
(g2
(I0
tp7925
g4
tp7926
Rp7927
(I1
(I1
tp7928
g11
I00
S'\xe4\xd0I='
p7929
tp7930
bag1
(g2
(I0
tp7931
g4
tp7932
Rp7933
(I1
(I1
tp7934
g11
I00
S'\xdd\xd0I='
p7935
tp7936
bag1
(g2
(I0
tp7937
g4
tp7938
Rp7939
(I1
(I1
tp7940
g11
I00
S'\xda\xd0I='
p7941
tp7942
bag1
(g2
(I0
tp7943
g4
tp7944
Rp7945
(I1
(I1
tp7946
g11
I00
S'\xd5\xd0I='
p7947
tp7948
bag1
(g2
(I0
tp7949
g4
tp7950
Rp7951
(I1
(I1
tp7952
g11
I00
S'\xd0\xd0I='
p7953
tp7954
bag1
(g2
(I0
tp7955
g4
tp7956
Rp7957
(I1
(I1
tp7958
g11
I00
S'\xcc\xd0I='
p7959
tp7960
bag1
(g2
(I0
tp7961
g4
tp7962
Rp7963
(I1
(I1
tp7964
g11
I00
S'\xc8\xd0I='
p7965
tp7966
bag1
(g2
(I0
tp7967
g4
tp7968
Rp7969
(I1
(I1
tp7970
g11
I00
S'\xc2\xd0I='
p7971
tp7972
bag1
(g2
(I0
tp7973
g4
tp7974
Rp7975
(I1
(I1
tp7976
g11
I00
S'\xbe\xd0I='
p7977
tp7978
bag1
(g2
(I0
tp7979
g4
tp7980
Rp7981
(I1
(I1
tp7982
g11
I00
S'\xba\xd0I='
p7983
tp7984
bag1
(g2
(I0
tp7985
g4
tp7986
Rp7987
(I1
(I1
tp7988
g11
I00
S'\xb5\xd0I='
p7989
tp7990
bag1
(g2
(I0
tp7991
g4
tp7992
Rp7993
(I1
(I1
tp7994
g11
I00
S'\xb2\xd0I='
p7995
tp7996
bag1
(g2
(I0
tp7997
g4
tp7998
Rp7999
(I1
(I1
tp8000
g11
I00
S'\xac\xd0I='
p8001
tp8002
bag1
(g2
(I0
tp8003
g4
tp8004
Rp8005
(I1
(I1
tp8006
g11
I00
S'\xa8\xd0I='
p8007
tp8008
bag1
(g2
(I0
tp8009
g4
tp8010
Rp8011
(I1
(I1
tp8012
g11
I00
S'\xa4\xd0I='
p8013
tp8014
bag1
(g2
(I0
tp8015
g4
tp8016
Rp8017
(I1
(I1
tp8018
g11
I00
S'\x9e\xd0I='
p8019
tp8020
bag1
(g2
(I0
tp8021
g4
tp8022
Rp8023
(I1
(I1
tp8024
g11
I00
S'\x9d\xd0I='
p8025
tp8026
bag1
(g2
(I0
tp8027
g4
tp8028
Rp8029
(I1
(I1
tp8030
g11
I00
S'\x99\xd0I='
p8031
tp8032
bag1
(g2
(I0
tp8033
g4
tp8034
Rp8035
(I1
(I1
tp8036
g11
I00
S'\x93\xd0I='
p8037
tp8038
bag1
(g2
(I0
tp8039
g4
tp8040
Rp8041
(I1
(I1
tp8042
g11
I00
S'\x8d\xd0I='
p8043
tp8044
bag1
(g2
(I0
tp8045
g4
tp8046
Rp8047
(I1
(I1
tp8048
g11
I00
S'\x89\xd0I='
p8049
tp8050
bag1
(g2
(I0
tp8051
g4
tp8052
Rp8053
(I1
(I1
tp8054
g11
I00
S'\x85\xd0I='
p8055
tp8056
bag1
(g2
(I0
tp8057
g4
tp8058
Rp8059
(I1
(I1
tp8060
g11
I00
S'\x83\xd0I='
p8061
tp8062
bag1
(g2
(I0
tp8063
g4
tp8064
Rp8065
(I1
(I1
tp8066
g11
I00
S'}\xd0I='
p8067
tp8068
bag1
(g2
(I0
tp8069
g4
tp8070
Rp8071
(I1
(I1
tp8072
g11
I00
S'{\xd0I='
p8073
tp8074
bag1
(g2
(I0
tp8075
g4
tp8076
Rp8077
(I1
(I1
tp8078
g11
I00
S'u\xd0I='
p8079
tp8080
bag1
(g2
(I0
tp8081
g4
tp8082
Rp8083
(I1
(I1
tp8084
g11
I00
S'p\xd0I='
p8085
tp8086
bag1
(g2
(I0
tp8087
g4
tp8088
Rp8089
(I1
(I1
tp8090
g11
I00
S'm\xd0I='
p8091
tp8092
bag1
(g2
(I0
tp8093
g4
tp8094
Rp8095
(I1
(I1
tp8096
g11
I00
S'i\xd0I='
p8097
tp8098
bag1
(g2
(I0
tp8099
g4
tp8100
Rp8101
(I1
(I1
tp8102
g11
I00
S'f\xd0I='
p8103
tp8104
bag1
(g2
(I0
tp8105
g4
tp8106
Rp8107
(I1
(I1
tp8108
g11
I00
S'b\xd0I='
p8109
tp8110
bag1
(g2
(I0
tp8111
g4
tp8112
Rp8113
(I1
(I1
tp8114
g11
I00
S'_\xd0I='
p8115
tp8116
bag1
(g2
(I0
tp8117
g4
tp8118
Rp8119
(I1
(I1
tp8120
g11
I00
S'Y\xd0I='
p8121
tp8122
bag1
(g2
(I0
tp8123
g4
tp8124
Rp8125
(I1
(I1
tp8126
g11
I00
S'U\xd0I='
p8127
tp8128
bag1
(g2
(I0
tp8129
g4
tp8130
Rp8131
(I1
(I1
tp8132
g11
I00
S'P\xd0I='
p8133
tp8134
bag1
(g2
(I0
tp8135
g4
tp8136
Rp8137
(I1
(I1
tp8138
g11
I00
S'N\xd0I='
p8139
tp8140
bag1
(g2
(I0
tp8141
g4
tp8142
Rp8143
(I1
(I1
tp8144
g11
I00
S'K\xd0I='
p8145
tp8146
bag1
(g2
(I0
tp8147
g4
tp8148
Rp8149
(I1
(I1
tp8150
g11
I00
S'G\xd0I='
p8151
tp8152
bag1
(g2
(I0
tp8153
g4
tp8154
Rp8155
(I1
(I1
tp8156
g11
I00
S'D\xd0I='
p8157
tp8158
bag1
(g2
(I0
tp8159
g4
tp8160
Rp8161
(I1
(I1
tp8162
g11
I00
S'?\xd0I='
p8163
tp8164
bag1
(g2
(I0
tp8165
g4
tp8166
Rp8167
(I1
(I1
tp8168
g11
I00
S'9\xd0I='
p8169
tp8170
bag1
(g2
(I0
tp8171
g4
tp8172
Rp8173
(I1
(I1
tp8174
g11
I00
S'8\xd0I='
p8175
tp8176
bag1
(g2
(I0
tp8177
g4
tp8178
Rp8179
(I1
(I1
tp8180
g11
I00
S'2\xd0I='
p8181
tp8182
bag1
(g2
(I0
tp8183
g4
tp8184
Rp8185
(I1
(I1
tp8186
g11
I00
S'1\xd0I='
p8187
tp8188
bag1
(g2
(I0
tp8189
g4
tp8190
Rp8191
(I1
(I1
tp8192
g11
I00
S'/\xd0I='
p8193
tp8194
bag1
(g2
(I0
tp8195
g4
tp8196
Rp8197
(I1
(I1
tp8198
g11
I00
S'*\xd0I='
p8199
tp8200
bag1
(g2
(I0
tp8201
g4
tp8202
Rp8203
(I1
(I1
tp8204
g11
I00
S"'\xd0I="
p8205
tp8206
bag1
(g2
(I0
tp8207
g4
tp8208
Rp8209
(I1
(I1
tp8210
g11
I00
S'#\xd0I='
p8211
tp8212
bag1
(g2
(I0
tp8213
g4
tp8214
Rp8215
(I1
(I1
tp8216
g11
I00
S'\x1e\xd0I='
p8217
tp8218
bag1
(g2
(I0
tp8219
g4
tp8220
Rp8221
(I1
(I1
tp8222
g11
I00
S'\x1c\xd0I='
p8223
tp8224
bag1
(g2
(I0
tp8225
g4
tp8226
Rp8227
(I1
(I1
tp8228
g11
I00
S'\x19\xd0I='
p8229
tp8230
bag1
(g2
(I0
tp8231
g4
tp8232
Rp8233
(I1
(I1
tp8234
g11
I00
S'\x15\xd0I='
p8235
tp8236
bag1
(g2
(I0
tp8237
g4
tp8238
Rp8239
(I1
(I1
tp8240
g11
I00
S'\x11\xd0I='
p8241
tp8242
bag1
(g2
(I0
tp8243
g4
tp8244
Rp8245
(I1
(I1
tp8246
g11
I00
S'\x0e\xd0I='
p8247
tp8248
bag1
(g2
(I0
tp8249
g4
tp8250
Rp8251
(I1
(I1
tp8252
g11
I00
S'\x0b\xd0I='
p8253
tp8254
bag1
(g2
(I0
tp8255
g4
tp8256
Rp8257
(I1
(I1
tp8258
g11
I00
S'\x07\xd0I='
p8259
tp8260
bag1
(g2
(I0
tp8261
g4
tp8262
Rp8263
(I1
(I1
tp8264
g11
I00
S'\x03\xd0I='
p8265
tp8266
bag1
(g2
(I0
tp8267
g4
tp8268
Rp8269
(I1
(I1
tp8270
g11
I00
S'\xff\xcfI='
p8271
tp8272
bag1
(g2
(I0
tp8273
g4
tp8274
Rp8275
(I1
(I1
tp8276
g11
I00
S'\xfb\xcfI='
p8277
tp8278
bag1
(g2
(I0
tp8279
g4
tp8280
Rp8281
(I1
(I1
tp8282
g11
I00
S'\xf8\xcfI='
p8283
tp8284
bag1
(g2
(I0
tp8285
g4
tp8286
Rp8287
(I1
(I1
tp8288
g11
I00
S'\xf8\xcfI='
p8289
tp8290
bag1
(g2
(I0
tp8291
g4
tp8292
Rp8293
(I1
(I1
tp8294
g11
I00
S'\xf3\xcfI='
p8295
tp8296
bag1
(g2
(I0
tp8297
g4
tp8298
Rp8299
(I1
(I1
tp8300
g11
I00
S'\xee\xcfI='
p8301
tp8302
bag1
(g2
(I0
tp8303
g4
tp8304
Rp8305
(I1
(I1
tp8306
g11
I00
S'\xe8\xcfI='
p8307
tp8308
bag1
(g2
(I0
tp8309
g4
tp8310
Rp8311
(I1
(I1
tp8312
g11
I00
S'\xe5\xcfI='
p8313
tp8314
bag1
(g2
(I0
tp8315
g4
tp8316
Rp8317
(I1
(I1
tp8318
g11
I00
S'\xe4\xcfI='
p8319
tp8320
bag1
(g2
(I0
tp8321
g4
tp8322
Rp8323
(I1
(I1
tp8324
g11
I00
S'\xe1\xcfI='
p8325
tp8326
bag1
(g2
(I0
tp8327
g4
tp8328
Rp8329
(I1
(I1
tp8330
g11
I00
S'\xdb\xcfI='
p8331
tp8332
bag1
(g2
(I0
tp8333
g4
tp8334
Rp8335
(I1
(I1
tp8336
g11
I00
S'\xd8\xcfI='
p8337
tp8338
bag1
(g2
(I0
tp8339
g4
tp8340
Rp8341
(I1
(I1
tp8342
g11
I00
S'\xd5\xcfI='
p8343
tp8344
bag1
(g2
(I0
tp8345
g4
tp8346
Rp8347
(I1
(I1
tp8348
g11
I00
S'\xd5\xcfI='
p8349
tp8350
bag1
(g2
(I0
tp8351
g4
tp8352
Rp8353
(I1
(I1
tp8354
g11
I00
S'\xcf\xcfI='
p8355
tp8356
bag1
(g2
(I0
tp8357
g4
tp8358
Rp8359
(I1
(I1
tp8360
g11
I00
S'\xcb\xcfI='
p8361
tp8362
bag1
(g2
(I0
tp8363
g4
tp8364
Rp8365
(I1
(I1
tp8366
g11
I00
S'\xca\xcfI='
p8367
tp8368
bag1
(g2
(I0
tp8369
g4
tp8370
Rp8371
(I1
(I1
tp8372
g11
I00
S'\xc6\xcfI='
p8373
tp8374
bag1
(g2
(I0
tp8375
g4
tp8376
Rp8377
(I1
(I1
tp8378
g11
I00
S'\xc1\xcfI='
p8379
tp8380
bag1
(g2
(I0
tp8381
g4
tp8382
Rp8383
(I1
(I1
tp8384
g11
I00
S'\xc1\xcfI='
p8385
tp8386
bag1
(g2
(I0
tp8387
g4
tp8388
Rp8389
(I1
(I1
tp8390
g11
I00
S'\xbd\xcfI='
p8391
tp8392
bag1
(g2
(I0
tp8393
g4
tp8394
Rp8395
(I1
(I1
tp8396
g11
I00
S'\xbb\xcfI='
p8397
tp8398
bag1
(g2
(I0
tp8399
g4
tp8400
Rp8401
(I1
(I1
tp8402
g11
I00
S'\xb7\xcfI='
p8403
tp8404
bag1
(g2
(I0
tp8405
g4
tp8406
Rp8407
(I1
(I1
tp8408
g11
I00
S'\xb5\xcfI='
p8409
tp8410
bag1
(g2
(I0
tp8411
g4
tp8412
Rp8413
(I1
(I1
tp8414
g11
I00
S'\xb3\xcfI='
p8415
tp8416
bag1
(g2
(I0
tp8417
g4
tp8418
Rp8419
(I1
(I1
tp8420
g11
I00
S'\xb0\xcfI='
p8421
tp8422
bag1
(g2
(I0
tp8423
g4
tp8424
Rp8425
(I1
(I1
tp8426
g11
I00
S'\xad\xcfI='
p8427
tp8428
bag1
(g2
(I0
tp8429
g4
tp8430
Rp8431
(I1
(I1
tp8432
g11
I00
S'\xab\xcfI='
p8433
tp8434
bag1
(g2
(I0
tp8435
g4
tp8436
Rp8437
(I1
(I1
tp8438
g11
I00
S'\xa7\xcfI='
p8439
tp8440
bag1
(g2
(I0
tp8441
g4
tp8442
Rp8443
(I1
(I1
tp8444
g11
I00
S'\xa3\xcfI='
p8445
tp8446
bag1
(g2
(I0
tp8447
g4
tp8448
Rp8449
(I1
(I1
tp8450
g11
I00
S'\xa2\xcfI='
p8451
tp8452
bag1
(g2
(I0
tp8453
g4
tp8454
Rp8455
(I1
(I1
tp8456
g11
I00
S'\x9e\xcfI='
p8457
tp8458
bag1
(g2
(I0
tp8459
g4
tp8460
Rp8461
(I1
(I1
tp8462
g11
I00
S'\x9b\xcfI='
p8463
tp8464
bag1
(g2
(I0
tp8465
g4
tp8466
Rp8467
(I1
(I1
tp8468
g11
I00
S'\x99\xcfI='
p8469
tp8470
bag1
(g2
(I0
tp8471
g4
tp8472
Rp8473
(I1
(I1
tp8474
g11
I00
S'\x95\xcfI='
p8475
tp8476
bag1
(g2
(I0
tp8477
g4
tp8478
Rp8479
(I1
(I1
tp8480
g11
I00
S'\x95\xcfI='
p8481
tp8482
bag1
(g2
(I0
tp8483
g4
tp8484
Rp8485
(I1
(I1
tp8486
g11
I00
S'\x91\xcfI='
p8487
tp8488
bag1
(g2
(I0
tp8489
g4
tp8490
Rp8491
(I1
(I1
tp8492
g11
I00
S'\x8f\xcfI='
p8493
tp8494
bag1
(g2
(I0
tp8495
g4
tp8496
Rp8497
(I1
(I1
tp8498
g11
I00
S'\x8d\xcfI='
p8499
tp8500
bag1
(g2
(I0
tp8501
g4
tp8502
Rp8503
(I1
(I1
tp8504
g11
I00
S'\x88\xcfI='
p8505
tp8506
bag1
(g2
(I0
tp8507
g4
tp8508
Rp8509
(I1
(I1
tp8510
g11
I00
S'\x85\xcfI='
p8511
tp8512
bag1
(g2
(I0
tp8513
g4
tp8514
Rp8515
(I1
(I1
tp8516
g11
I00
S'\x81\xcfI='
p8517
tp8518
bag1
(g2
(I0
tp8519
g4
tp8520
Rp8521
(I1
(I1
tp8522
g11
I00
S'~\xcfI='
p8523
tp8524
bag1
(g2
(I0
tp8525
g4
tp8526
Rp8527
(I1
(I1
tp8528
g11
I00
S'{\xcfI='
p8529
tp8530
bag1
(g2
(I0
tp8531
g4
tp8532
Rp8533
(I1
(I1
tp8534
g11
I00
S'w\xcfI='
p8535
tp8536
bag1
(g2
(I0
tp8537
g4
tp8538
Rp8539
(I1
(I1
tp8540
g11
I00
S'w\xcfI='
p8541
tp8542
bag1
(g2
(I0
tp8543
g4
tp8544
Rp8545
(I1
(I1
tp8546
g11
I00
S't\xcfI='
p8547
tp8548
bag1
(g2
(I0
tp8549
g4
tp8550
Rp8551
(I1
(I1
tp8552
g11
I00
S'o\xcfI='
p8553
tp8554
bag1
(g2
(I0
tp8555
g4
tp8556
Rp8557
(I1
(I1
tp8558
g11
I00
S'n\xcfI='
p8559
tp8560
bag1
(g2
(I0
tp8561
g4
tp8562
Rp8563
(I1
(I1
tp8564
g11
I00
S'k\xcfI='
p8565
tp8566
bag1
(g2
(I0
tp8567
g4
tp8568
Rp8569
(I1
(I1
tp8570
g11
I00
S'j\xcfI='
p8571
tp8572
bag1
(g2
(I0
tp8573
g4
tp8574
Rp8575
(I1
(I1
tp8576
g11
I00
S'g\xcfI='
p8577
tp8578
bag1
(g2
(I0
tp8579
g4
tp8580
Rp8581
(I1
(I1
tp8582
g11
I00
S'c\xcfI='
p8583
tp8584
bag1
(g2
(I0
tp8585
g4
tp8586
Rp8587
(I1
(I1
tp8588
g11
I00
S'b\xcfI='
p8589
tp8590
bag1
(g2
(I0
tp8591
g4
tp8592
Rp8593
(I1
(I1
tp8594
g11
I00
S'a\xcfI='
p8595
tp8596
bag1
(g2
(I0
tp8597
g4
tp8598
Rp8599
(I1
(I1
tp8600
g11
I00
S'[\xcfI='
p8601
tp8602
bag1
(g2
(I0
tp8603
g4
tp8604
Rp8605
(I1
(I1
tp8606
g11
I00
S'X\xcfI='
p8607
tp8608
bag1
(g2
(I0
tp8609
g4
tp8610
Rp8611
(I1
(I1
tp8612
g11
I00
S'X\xcfI='
p8613
tp8614
bag1
(g2
(I0
tp8615
g4
tp8616
Rp8617
(I1
(I1
tp8618
g11
I00
S'T\xcfI='
p8619
tp8620
bag1
(g2
(I0
tp8621
g4
tp8622
Rp8623
(I1
(I1
tp8624
g11
I00
S'T\xcfI='
p8625
tp8626
bag1
(g2
(I0
tp8627
g4
tp8628
Rp8629
(I1
(I1
tp8630
g11
I00
S'Q\xcfI='
p8631
tp8632
bag1
(g2
(I0
tp8633
g4
tp8634
Rp8635
(I1
(I1
tp8636
g11
I00
S'O\xcfI='
p8637
tp8638
bag1
(g2
(I0
tp8639
g4
tp8640
Rp8641
(I1
(I1
tp8642
g11
I00
S'L\xcfI='
p8643
tp8644
bag1
(g2
(I0
tp8645
g4
tp8646
Rp8647
(I1
(I1
tp8648
g11
I00
S'K\xcfI='
p8649
tp8650
bag1
(g2
(I0
tp8651
g4
tp8652
Rp8653
(I1
(I1
tp8654
g11
I00
S'D\xcfI='
p8655
tp8656
bag1
(g2
(I0
tp8657
g4
tp8658
Rp8659
(I1
(I1
tp8660
g11
I00
S'D\xcfI='
p8661
tp8662
bag1
(g2
(I0
tp8663
g4
tp8664
Rp8665
(I1
(I1
tp8666
g11
I00
S'?\xcfI='
p8667
tp8668
bag1
(g2
(I0
tp8669
g4
tp8670
Rp8671
(I1
(I1
tp8672
g11
I00
S'=\xcfI='
p8673
tp8674
bag1
(g2
(I0
tp8675
g4
tp8676
Rp8677
(I1
(I1
tp8678
g11
I00
S':\xcfI='
p8679
tp8680
bag1
(g2
(I0
tp8681
g4
tp8682
Rp8683
(I1
(I1
tp8684
g11
I00
S'7\xcfI='
p8685
tp8686
bag1
(g2
(I0
tp8687
g4
tp8688
Rp8689
(I1
(I1
tp8690
g11
I00
S'4\xcfI='
p8691
tp8692
bag1
(g2
(I0
tp8693
g4
tp8694
Rp8695
(I1
(I1
tp8696
g11
I00
S'4\xcfI='
p8697
tp8698
bag1
(g2
(I0
tp8699
g4
tp8700
Rp8701
(I1
(I1
tp8702
g11
I00
S'2\xcfI='
p8703
tp8704
bag1
(g2
(I0
tp8705
g4
tp8706
Rp8707
(I1
(I1
tp8708
g11
I00
S'0\xcfI='
p8709
tp8710
bag1
(g2
(I0
tp8711
g4
tp8712
Rp8713
(I1
(I1
tp8714
g11
I00
S',\xcfI='
p8715
tp8716
bag1
(g2
(I0
tp8717
g4
tp8718
Rp8719
(I1
(I1
tp8720
g11
I00
S'+\xcfI='
p8721
tp8722
bag1
(g2
(I0
tp8723
g4
tp8724
Rp8725
(I1
(I1
tp8726
g11
I00
S'(\xcfI='
p8727
tp8728
bag1
(g2
(I0
tp8729
g4
tp8730
Rp8731
(I1
(I1
tp8732
g11
I00
S'&\xcfI='
p8733
tp8734
bag1
(g2
(I0
tp8735
g4
tp8736
Rp8737
(I1
(I1
tp8738
g11
I00
S'#\xcfI='
p8739
tp8740
bag1
(g2
(I0
tp8741
g4
tp8742
Rp8743
(I1
(I1
tp8744
g11
I00
S' \xcfI='
p8745
tp8746
bag1
(g2
(I0
tp8747
g4
tp8748
Rp8749
(I1
(I1
tp8750
g11
I00
S'\x1e\xcfI='
p8751
tp8752
bag1
(g2
(I0
tp8753
g4
tp8754
Rp8755
(I1
(I1
tp8756
g11
I00
S'\x1d\xcfI='
p8757
tp8758
bag1
(g2
(I0
tp8759
g4
tp8760
Rp8761
(I1
(I1
tp8762
g11
I00
S'\x1a\xcfI='
p8763
tp8764
bag1
(g2
(I0
tp8765
g4
tp8766
Rp8767
(I1
(I1
tp8768
g11
I00
S'\x18\xcfI='
p8769
tp8770
bag1
(g2
(I0
tp8771
g4
tp8772
Rp8773
(I1
(I1
tp8774
g11
I00
S'\x16\xcfI='
p8775
tp8776
bag1
(g2
(I0
tp8777
g4
tp8778
Rp8779
(I1
(I1
tp8780
g11
I00
S'\x16\xcfI='
p8781
tp8782
bag1
(g2
(I0
tp8783
g4
tp8784
Rp8785
(I1
(I1
tp8786
g11
I00
S'\x13\xcfI='
p8787
tp8788
bag1
(g2
(I0
tp8789
g4
tp8790
Rp8791
(I1
(I1
tp8792
g11
I00
S'\x13\xcfI='
p8793
tp8794
bag1
(g2
(I0
tp8795
g4
tp8796
Rp8797
(I1
(I1
tp8798
g11
I00
S'\x0e\xcfI='
p8799
tp8800
bag1
(g2
(I0
tp8801
g4
tp8802
Rp8803
(I1
(I1
tp8804
g11
I00
S'\n\xcfI='
p8805
tp8806
bag1
(g2
(I0
tp8807
g4
tp8808
Rp8809
(I1
(I1
tp8810
g11
I00
S'\x08\xcfI='
p8811
tp8812
bag1
(g2
(I0
tp8813
g4
tp8814
Rp8815
(I1
(I1
tp8816
g11
I00
S'\x06\xcfI='
p8817
tp8818
bag1
(g2
(I0
tp8819
g4
tp8820
Rp8821
(I1
(I1
tp8822
g11
I00
S'\x03\xcfI='
p8823
tp8824
bag1
(g2
(I0
tp8825
g4
tp8826
Rp8827
(I1
(I1
tp8828
g11
I00
S'\x03\xcfI='
p8829
tp8830
bag1
(g2
(I0
tp8831
g4
tp8832
Rp8833
(I1
(I1
tp8834
g11
I00
S'\xff\xceI='
p8835
tp8836
bag1
(g2
(I0
tp8837
g4
tp8838
Rp8839
(I1
(I1
tp8840
g11
I00
S'\xfe\xceI='
p8841
tp8842
bag1
(g2
(I0
tp8843
g4
tp8844
Rp8845
(I1
(I1
tp8846
g11
I00
S'\xfe\xceI='
p8847
tp8848
bag1
(g2
(I0
tp8849
g4
tp8850
Rp8851
(I1
(I1
tp8852
g11
I00
S'\xfb\xceI='
p8853
tp8854
bag1
(g2
(I0
tp8855
g4
tp8856
Rp8857
(I1
(I1
tp8858
g11
I00
S'\xfa\xceI='
p8859
tp8860
bag1
(g2
(I0
tp8861
g4
tp8862
Rp8863
(I1
(I1
tp8864
g11
I00
S'\xf7\xceI='
p8865
tp8866
bag1
(g2
(I0
tp8867
g4
tp8868
Rp8869
(I1
(I1
tp8870
g11
I00
S'\xf6\xceI='
p8871
tp8872
bag1
(g2
(I0
tp8873
g4
tp8874
Rp8875
(I1
(I1
tp8876
g11
I00
S'\xf3\xceI='
p8877
tp8878
bag1
(g2
(I0
tp8879
g4
tp8880
Rp8881
(I1
(I1
tp8882
g11
I00
S'\xf2\xceI='
p8883
tp8884
bag1
(g2
(I0
tp8885
g4
tp8886
Rp8887
(I1
(I1
tp8888
g11
I00
S'\xed\xceI='
p8889
tp8890
bag1
(g2
(I0
tp8891
g4
tp8892
Rp8893
(I1
(I1
tp8894
g11
I00
S'\xeb\xceI='
p8895
tp8896
bag1
(g2
(I0
tp8897
g4
tp8898
Rp8899
(I1
(I1
tp8900
g11
I00
S'\xe9\xceI='
p8901
tp8902
bag1
(g2
(I0
tp8903
g4
tp8904
Rp8905
(I1
(I1
tp8906
g11
I00
S'\xe7\xceI='
p8907
tp8908
bag1
(g2
(I0
tp8909
g4
tp8910
Rp8911
(I1
(I1
tp8912
g11
I00
S'\xe6\xceI='
p8913
tp8914
bag1
(g2
(I0
tp8915
g4
tp8916
Rp8917
(I1
(I1
tp8918
g11
I00
S'\xe4\xceI='
p8919
tp8920
bag1
(g2
(I0
tp8921
g4
tp8922
Rp8923
(I1
(I1
tp8924
g11
I00
S'\xe3\xceI='
p8925
tp8926
bag1
(g2
(I0
tp8927
g4
tp8928
Rp8929
(I1
(I1
tp8930
g11
I00
S'\xe1\xceI='
p8931
tp8932
bag1
(g2
(I0
tp8933
g4
tp8934
Rp8935
(I1
(I1
tp8936
g11
I00
S'\xdf\xceI='
p8937
tp8938
bag1
(g2
(I0
tp8939
g4
tp8940
Rp8941
(I1
(I1
tp8942
g11
I00
S'\xdd\xceI='
p8943
tp8944
bag1
(g2
(I0
tp8945
g4
tp8946
Rp8947
(I1
(I1
tp8948
g11
I00
S'\xda\xceI='
p8949
tp8950
bag1
(g2
(I0
tp8951
g4
tp8952
Rp8953
(I1
(I1
tp8954
g11
I00
S'\xda\xceI='
p8955
tp8956
bag1
(g2
(I0
tp8957
g4
tp8958
Rp8959
(I1
(I1
tp8960
g11
I00
S'\xd7\xceI='
p8961
tp8962
bag1
(g2
(I0
tp8963
g4
tp8964
Rp8965
(I1
(I1
tp8966
g11
I00
S'\xd6\xceI='
p8967
tp8968
bag1
(g2
(I0
tp8969
g4
tp8970
Rp8971
(I1
(I1
tp8972
g11
I00
S'\xd2\xceI='
p8973
tp8974
bag1
(g2
(I0
tp8975
g4
tp8976
Rp8977
(I1
(I1
tp8978
g11
I00
S'\xd0\xceI='
p8979
tp8980
bag1
(g2
(I0
tp8981
g4
tp8982
Rp8983
(I1
(I1
tp8984
g11
I00
S'\xcb\xceI='
p8985
tp8986
bag1
(g2
(I0
tp8987
g4
tp8988
Rp8989
(I1
(I1
tp8990
g11
I00
S'\xcb\xceI='
p8991
tp8992
bag1
(g2
(I0
tp8993
g4
tp8994
Rp8995
(I1
(I1
tp8996
g11
I00
S'\xcb\xceI='
p8997
tp8998
bag1
(g2
(I0
tp8999
g4
tp9000
Rp9001
(I1
(I1
tp9002
g11
I00
S'\xc6\xceI='
p9003
tp9004
bag1
(g2
(I0
tp9005
g4
tp9006
Rp9007
(I1
(I1
tp9008
g11
I00
S'\xc4\xceI='
p9009
tp9010
bag1
(g2
(I0
tp9011
g4
tp9012
Rp9013
(I1
(I1
tp9014
g11
I00
S'\xc1\xceI='
p9015
tp9016
bag1
(g2
(I0
tp9017
g4
tp9018
Rp9019
(I1
(I1
tp9020
g11
I00
S'\xc1\xceI='
p9021
tp9022
bag1
(g2
(I0
tp9023
g4
tp9024
Rp9025
(I1
(I1
tp9026
g11
I00
S'\xc1\xceI='
p9027
tp9028
bag1
(g2
(I0
tp9029
g4
tp9030
Rp9031
(I1
(I1
tp9032
g11
I00
S'\xbf\xceI='
p9033
tp9034
bag1
(g2
(I0
tp9035
g4
tp9036
Rp9037
(I1
(I1
tp9038
g11
I00
S'\xbf\xceI='
p9039
tp9040
bag1
(g2
(I0
tp9041
g4
tp9042
Rp9043
(I1
(I1
tp9044
g11
I00
S'\xbd\xceI='
p9045
tp9046
bag1
(g2
(I0
tp9047
g4
tp9048
Rp9049
(I1
(I1
tp9050
g11
I00
S'\xbc\xceI='
p9051
tp9052
bag1
(g2
(I0
tp9053
g4
tp9054
Rp9055
(I1
(I1
tp9056
g11
I00
S'\xb9\xceI='
p9057
tp9058
bag1
(g2
(I0
tp9059
g4
tp9060
Rp9061
(I1
(I1
tp9062
g11
I00
S'\xb7\xceI='
p9063
tp9064
bag1
(g2
(I0
tp9065
g4
tp9066
Rp9067
(I1
(I1
tp9068
g11
I00
S'\xb4\xceI='
p9069
tp9070
bag1
(g2
(I0
tp9071
g4
tp9072
Rp9073
(I1
(I1
tp9074
g11
I00
S'\xb3\xceI='
p9075
tp9076
bag1
(g2
(I0
tp9077
g4
tp9078
Rp9079
(I1
(I1
tp9080
g11
I00
S'\xb1\xceI='
p9081
tp9082
bag1
(g2
(I0
tp9083
g4
tp9084
Rp9085
(I1
(I1
tp9086
g11
I00
S'\xaf\xceI='
p9087
tp9088
bag1
(g2
(I0
tp9089
g4
tp9090
Rp9091
(I1
(I1
tp9092
g11
I00
S'\xad\xceI='
p9093
tp9094
bag1
(g2
(I0
tp9095
g4
tp9096
Rp9097
(I1
(I1
tp9098
g11
I00
S'\xab\xceI='
p9099
tp9100
bag1
(g2
(I0
tp9101
g4
tp9102
Rp9103
(I1
(I1
tp9104
g11
I00
S'\xab\xceI='
p9105
tp9106
bag1
(g2
(I0
tp9107
g4
tp9108
Rp9109
(I1
(I1
tp9110
g11
I00
S'\xa9\xceI='
p9111
tp9112
bag1
(g2
(I0
tp9113
g4
tp9114
Rp9115
(I1
(I1
tp9116
g11
I00
S'\xa7\xceI='
p9117
tp9118
bag1
(g2
(I0
tp9119
g4
tp9120
Rp9121
(I1
(I1
tp9122
g11
I00
S'\xa5\xceI='
p9123
tp9124
bag1
(g2
(I0
tp9125
g4
tp9126
Rp9127
(I1
(I1
tp9128
g11
I00
S'\xa5\xceI='
p9129
tp9130
bag1
(g2
(I0
tp9131
g4
tp9132
Rp9133
(I1
(I1
tp9134
g11
I00
S'\xa2\xceI='
p9135
tp9136
bag1
(g2
(I0
tp9137
g4
tp9138
Rp9139
(I1
(I1
tp9140
g11
I00
S'\xa0\xceI='
p9141
tp9142
bag1
(g2
(I0
tp9143
g4
tp9144
Rp9145
(I1
(I1
tp9146
g11
I00
S'\x9e\xceI='
p9147
tp9148
bag1
(g2
(I0
tp9149
g4
tp9150
Rp9151
(I1
(I1
tp9152
g11
I00
S'\x9e\xceI='
p9153
tp9154
bag1
(g2
(I0
tp9155
g4
tp9156
Rp9157
(I1
(I1
tp9158
g11
I00
S'\x9d\xceI='
p9159
tp9160
bag1
(g2
(I0
tp9161
g4
tp9162
Rp9163
(I1
(I1
tp9164
g11
I00
S'\x9b\xceI='
p9165
tp9166
bag1
(g2
(I0
tp9167
g4
tp9168
Rp9169
(I1
(I1
tp9170
g11
I00
S'\x99\xceI='
p9171
tp9172
bag1
(g2
(I0
tp9173
g4
tp9174
Rp9175
(I1
(I1
tp9176
g11
I00
S'\x96\xceI='
p9177
tp9178
bag1
(g2
(I0
tp9179
g4
tp9180
Rp9181
(I1
(I1
tp9182
g11
I00
S'\x94\xceI='
p9183
tp9184
bag1
(g2
(I0
tp9185
g4
tp9186
Rp9187
(I1
(I1
tp9188
g11
I00
S'\x91\xceI='
p9189
tp9190
bag1
(g2
(I0
tp9191
g4
tp9192
Rp9193
(I1
(I1
tp9194
g11
I00
S'\x90\xceI='
p9195
tp9196
bag1
(g2
(I0
tp9197
g4
tp9198
Rp9199
(I1
(I1
tp9200
g11
I00
S'\x8f\xceI='
p9201
tp9202
bag1
(g2
(I0
tp9203
g4
tp9204
Rp9205
(I1
(I1
tp9206
g11
I00
S'\x8d\xceI='
p9207
tp9208
bag1
(g2
(I0
tp9209
g4
tp9210
Rp9211
(I1
(I1
tp9212
g11
I00
S'\x8a\xceI='
p9213
tp9214
bag1
(g2
(I0
tp9215
g4
tp9216
Rp9217
(I1
(I1
tp9218
g11
I00
S'\x88\xceI='
p9219
tp9220
bag1
(g2
(I0
tp9221
g4
tp9222
Rp9223
(I1
(I1
tp9224
g11
I00
S'\x86\xceI='
p9225
tp9226
bag1
(g2
(I0
tp9227
g4
tp9228
Rp9229
(I1
(I1
tp9230
g11
I00
S'\x85\xceI='
p9231
tp9232
bag1
(g2
(I0
tp9233
g4
tp9234
Rp9235
(I1
(I1
tp9236
g11
I00
S'\x84\xceI='
p9237
tp9238
bag1
(g2
(I0
tp9239
g4
tp9240
Rp9241
(I1
(I1
tp9242
g11
I00
S'\x81\xceI='
p9243
tp9244
bag1
(g2
(I0
tp9245
g4
tp9246
Rp9247
(I1
(I1
tp9248
g11
I00
S'\x81\xceI='
p9249
tp9250
bag1
(g2
(I0
tp9251
g4
tp9252
Rp9253
(I1
(I1
tp9254
g11
I00
S'\x81\xceI='
p9255
tp9256
bag1
(g2
(I0
tp9257
g4
tp9258
Rp9259
(I1
(I1
tp9260
g11
I00
S'\x80\xceI='
p9261
tp9262
bag1
(g2
(I0
tp9263
g4
tp9264
Rp9265
(I1
(I1
tp9266
g11
I00
S'~\xceI='
p9267
tp9268
bag1
(g2
(I0
tp9269
g4
tp9270
Rp9271
(I1
(I1
tp9272
g11
I00
S'{\xceI='
p9273
tp9274
bag1
(g2
(I0
tp9275
g4
tp9276
Rp9277
(I1
(I1
tp9278
g11
I00
S'y\xceI='
p9279
tp9280
bag1
(g2
(I0
tp9281
g4
tp9282
Rp9283
(I1
(I1
tp9284
g11
I00
S'y\xceI='
p9285
tp9286
bag1
(g2
(I0
tp9287
g4
tp9288
Rp9289
(I1
(I1
tp9290
g11
I00
S'x\xceI='
p9291
tp9292
bag1
(g2
(I0
tp9293
g4
tp9294
Rp9295
(I1
(I1
tp9296
g11
I00
S't\xceI='
p9297
tp9298
bag1
(g2
(I0
tp9299
g4
tp9300
Rp9301
(I1
(I1
tp9302
g11
I00
S's\xceI='
p9303
tp9304
bag1
(g2
(I0
tp9305
g4
tp9306
Rp9307
(I1
(I1
tp9308
g11
I00
S's\xceI='
p9309
tp9310
bag1
(g2
(I0
tp9311
g4
tp9312
Rp9313
(I1
(I1
tp9314
g11
I00
S'q\xceI='
p9315
tp9316
bag1
(g2
(I0
tp9317
g4
tp9318
Rp9319
(I1
(I1
tp9320
g11
I00
S'q\xceI='
p9321
tp9322
bag1
(g2
(I0
tp9323
g4
tp9324
Rp9325
(I1
(I1
tp9326
g11
I00
S'q\xceI='
p9327
tp9328
bag1
(g2
(I0
tp9329
g4
tp9330
Rp9331
(I1
(I1
tp9332
g11
I00
S'o\xceI='
p9333
tp9334
bag1
(g2
(I0
tp9335
g4
tp9336
Rp9337
(I1
(I1
tp9338
g11
I00
S'm\xceI='
p9339
tp9340
bag1
(g2
(I0
tp9341
g4
tp9342
Rp9343
(I1
(I1
tp9344
g11
I00
S'l\xceI='
p9345
tp9346
bag1
(g2
(I0
tp9347
g4
tp9348
Rp9349
(I1
(I1
tp9350
g11
I00
S'i\xceI='
p9351
tp9352
bag1
(g2
(I0
tp9353
g4
tp9354
Rp9355
(I1
(I1
tp9356
g11
I00
S'h\xceI='
p9357
tp9358
bag1
(g2
(I0
tp9359
g4
tp9360
Rp9361
(I1
(I1
tp9362
g11
I00
S'g\xceI='
p9363
tp9364
bag1
(g2
(I0
tp9365
g4
tp9366
Rp9367
(I1
(I1
tp9368
g11
I00
S'd\xceI='
p9369
tp9370
bag1
(g2
(I0
tp9371
g4
tp9372
Rp9373
(I1
(I1
tp9374
g11
I00
S'b\xceI='
p9375
tp9376
bag1
(g2
(I0
tp9377
g4
tp9378
Rp9379
(I1
(I1
tp9380
g11
I00
S'a\xceI='
p9381
tp9382
bag1
(g2
(I0
tp9383
g4
tp9384
Rp9385
(I1
(I1
tp9386
g11
I00
S'^\xceI='
p9387
tp9388
bag1
(g2
(I0
tp9389
g4
tp9390
Rp9391
(I1
(I1
tp9392
g11
I00
S']\xceI='
p9393
tp9394
bag1
(g2
(I0
tp9395
g4
tp9396
Rp9397
(I1
(I1
tp9398
g11
I00
S']\xceI='
p9399
tp9400
bag1
(g2
(I0
tp9401
g4
tp9402
Rp9403
(I1
(I1
tp9404
g11
I00
S'[\xceI='
p9405
tp9406
bag1
(g2
(I0
tp9407
g4
tp9408
Rp9409
(I1
(I1
tp9410
g11
I00
S'Y\xceI='
p9411
tp9412
bag1
(g2
(I0
tp9413
g4
tp9414
Rp9415
(I1
(I1
tp9416
g11
I00
S'X\xceI='
p9417
tp9418
bag1
(g2
(I0
tp9419
g4
tp9420
Rp9421
(I1
(I1
tp9422
g11
I00
S'X\xceI='
p9423
tp9424
bag1
(g2
(I0
tp9425
g4
tp9426
Rp9427
(I1
(I1
tp9428
g11
I00
S'U\xceI='
p9429
tp9430
bag1
(g2
(I0
tp9431
g4
tp9432
Rp9433
(I1
(I1
tp9434
g11
I00
S'S\xceI='
p9435
tp9436
bag1
(g2
(I0
tp9437
g4
tp9438
Rp9439
(I1
(I1
tp9440
g11
I00
S'S\xceI='
p9441
tp9442
bag1
(g2
(I0
tp9443
g4
tp9444
Rp9445
(I1
(I1
tp9446
g11
I00
S'Q\xceI='
p9447
tp9448
bag1
(g2
(I0
tp9449
g4
tp9450
Rp9451
(I1
(I1
tp9452
g11
I00
S'P\xceI='
p9453
tp9454
bag1
(g2
(I0
tp9455
g4
tp9456
Rp9457
(I1
(I1
tp9458
g11
I00
S'P\xceI='
p9459
tp9460
bag1
(g2
(I0
tp9461
g4
tp9462
Rp9463
(I1
(I1
tp9464
g11
I00
S'M\xceI='
p9465
tp9466
bag1
(g2
(I0
tp9467
g4
tp9468
Rp9469
(I1
(I1
tp9470
g11
I00
S'J\xceI='
p9471
tp9472
bag1
(g2
(I0
tp9473
g4
tp9474
Rp9475
(I1
(I1
tp9476
g11
I00
S'I\xceI='
p9477
tp9478
bag1
(g2
(I0
tp9479
g4
tp9480
Rp9481
(I1
(I1
tp9482
g11
I00
S'I\xceI='
p9483
tp9484
bag1
(g2
(I0
tp9485
g4
tp9486
Rp9487
(I1
(I1
tp9488
g11
I00
S'H\xceI='
p9489
tp9490
bag1
(g2
(I0
tp9491
g4
tp9492
Rp9493
(I1
(I1
tp9494
g11
I00
S'H\xceI='
p9495
tp9496
bag1
(g2
(I0
tp9497
g4
tp9498
Rp9499
(I1
(I1
tp9500
g11
I00
S'G\xceI='
p9501
tp9502
bag1
(g2
(I0
tp9503
g4
tp9504
Rp9505
(I1
(I1
tp9506
g11
I00
S'D\xceI='
p9507
tp9508
bag1
(g2
(I0
tp9509
g4
tp9510
Rp9511
(I1
(I1
tp9512
g11
I00
S'D\xceI='
p9513
tp9514
bag1
(g2
(I0
tp9515
g4
tp9516
Rp9517
(I1
(I1
tp9518
g11
I00
S'A\xceI='
p9519
tp9520
bag1
(g2
(I0
tp9521
g4
tp9522
Rp9523
(I1
(I1
tp9524
g11
I00
S'@\xceI='
p9525
tp9526
bag1
(g2
(I0
tp9527
g4
tp9528
Rp9529
(I1
(I1
tp9530
g11
I00
S'?\xceI='
p9531
tp9532
bag1
(g2
(I0
tp9533
g4
tp9534
Rp9535
(I1
(I1
tp9536
g11
I00
S'=\xceI='
p9537
tp9538
bag1
(g2
(I0
tp9539
g4
tp9540
Rp9541
(I1
(I1
tp9542
g11
I00
S'<\xceI='
p9543
tp9544
bag1
(g2
(I0
tp9545
g4
tp9546
Rp9547
(I1
(I1
tp9548
g11
I00
S':\xceI='
p9549
tp9550
bag1
(g2
(I0
tp9551
g4
tp9552
Rp9553
(I1
(I1
tp9554
g11
I00
S':\xceI='
p9555
tp9556
bag1
(g2
(I0
tp9557
g4
tp9558
Rp9559
(I1
(I1
tp9560
g11
I00
S':\xceI='
p9561
tp9562
bag1
(g2
(I0
tp9563
g4
tp9564
Rp9565
(I1
(I1
tp9566
g11
I00
S'7\xceI='
p9567
tp9568
bag1
(g2
(I0
tp9569
g4
tp9570
Rp9571
(I1
(I1
tp9572
g11
I00
S'5\xceI='
p9573
tp9574
bag1
(g2
(I0
tp9575
g4
tp9576
Rp9577
(I1
(I1
tp9578
g11
I00
S'5\xceI='
p9579
tp9580
bag1
(g2
(I0
tp9581
g4
tp9582
Rp9583
(I1
(I1
tp9584
g11
I00
S'3\xceI='
p9585
tp9586
bag1
(g2
(I0
tp9587
g4
tp9588
Rp9589
(I1
(I1
tp9590
g11
I00
S'1\xceI='
p9591
tp9592
bag1
(g2
(I0
tp9593
g4
tp9594
Rp9595
(I1
(I1
tp9596
g11
I00
S'1\xceI='
p9597
tp9598
bag1
(g2
(I0
tp9599
g4
tp9600
Rp9601
(I1
(I1
tp9602
g11
I00
S'0\xceI='
p9603
tp9604
bag1
(g2
(I0
tp9605
g4
tp9606
Rp9607
(I1
(I1
tp9608
g11
I00
S'0\xceI='
p9609
tp9610
bag1
(g2
(I0
tp9611
g4
tp9612
Rp9613
(I1
(I1
tp9614
g11
I00
S'.\xceI='
p9615
tp9616
bag1
(g2
(I0
tp9617
g4
tp9618
Rp9619
(I1
(I1
tp9620
g11
I00
S'-\xceI='
p9621
tp9622
bag1
(g2
(I0
tp9623
g4
tp9624
Rp9625
(I1
(I1
tp9626
g11
I00
S'-\xceI='
p9627
tp9628
bag1
(g2
(I0
tp9629
g4
tp9630
Rp9631
(I1
(I1
tp9632
g11
I00
S'+\xceI='
p9633
tp9634
bag1
(g2
(I0
tp9635
g4
tp9636
Rp9637
(I1
(I1
tp9638
g11
I00
S')\xceI='
p9639
tp9640
bag1
(g2
(I0
tp9641
g4
tp9642
Rp9643
(I1
(I1
tp9644
g11
I00
S')\xceI='
p9645
tp9646
bag1
(g2
(I0
tp9647
g4
tp9648
Rp9649
(I1
(I1
tp9650
g11
I00
S"'\xceI="
p9651
tp9652
bag1
(g2
(I0
tp9653
g4
tp9654
Rp9655
(I1
(I1
tp9656
g11
I00
S'$\xceI='
p9657
tp9658
bag1
(g2
(I0
tp9659
g4
tp9660
Rp9661
(I1
(I1
tp9662
g11
I00
S'$\xceI='
p9663
tp9664
bag1
(g2
(I0
tp9665
g4
tp9666
Rp9667
(I1
(I1
tp9668
g11
I00
S'#\xceI='
p9669
tp9670
bag1
(g2
(I0
tp9671
g4
tp9672
Rp9673
(I1
(I1
tp9674
g11
I00
S'"\xceI='
p9675
tp9676
bag1
(g2
(I0
tp9677
g4
tp9678
Rp9679
(I1
(I1
tp9680
g11
I00
S'\x1f\xceI='
p9681
tp9682
bag1
(g2
(I0
tp9683
g4
tp9684
Rp9685
(I1
(I1
tp9686
g11
I00
S'\x1e\xceI='
p9687
tp9688
bag1
(g2
(I0
tp9689
g4
tp9690
Rp9691
(I1
(I1
tp9692
g11
I00
S'\x1d\xceI='
p9693
tp9694
bag1
(g2
(I0
tp9695
g4
tp9696
Rp9697
(I1
(I1
tp9698
g11
I00
S'\x1c\xceI='
p9699
tp9700
bag1
(g2
(I0
tp9701
g4
tp9702
Rp9703
(I1
(I1
tp9704
g11
I00
S'\x1b\xceI='
p9705
tp9706
bag1
(g2
(I0
tp9707
g4
tp9708
Rp9709
(I1
(I1
tp9710
g11
I00
S'\x1a\xceI='
p9711
tp9712
bag1
(g2
(I0
tp9713
g4
tp9714
Rp9715
(I1
(I1
tp9716
g11
I00
S'\x1a\xceI='
p9717
tp9718
bag1
(g2
(I0
tp9719
g4
tp9720
Rp9721
(I1
(I1
tp9722
g11
I00
S'\x19\xceI='
p9723
tp9724
bag1
(g2
(I0
tp9725
g4
tp9726
Rp9727
(I1
(I1
tp9728
g11
I00
S'\x17\xceI='
p9729
tp9730
bag1
(g2
(I0
tp9731
g4
tp9732
Rp9733
(I1
(I1
tp9734
g11
I00
S'\x17\xceI='
p9735
tp9736
bag1
(g2
(I0
tp9737
g4
tp9738
Rp9739
(I1
(I1
tp9740
g11
I00
S'\x17\xceI='
p9741
tp9742
bag1
(g2
(I0
tp9743
g4
tp9744
Rp9745
(I1
(I1
tp9746
g11
I00
S'\x14\xceI='
p9747
tp9748
bag1
(g2
(I0
tp9749
g4
tp9750
Rp9751
(I1
(I1
tp9752
g11
I00
S'\x12\xceI='
p9753
tp9754
bag1
(g2
(I0
tp9755
g4
tp9756
Rp9757
(I1
(I1
tp9758
g11
I00
S'\x12\xceI='
p9759
tp9760
bag1
(g2
(I0
tp9761
g4
tp9762
Rp9763
(I1
(I1
tp9764
g11
I00
S'\x12\xceI='
p9765
tp9766
bag1
(g2
(I0
tp9767
g4
tp9768
Rp9769
(I1
(I1
tp9770
g11
I00
S'\x12\xceI='
p9771
tp9772
bag1
(g2
(I0
tp9773
g4
tp9774
Rp9775
(I1
(I1
tp9776
g11
I00
S'\x0f\xceI='
p9777
tp9778
bag1
(g2
(I0
tp9779
g4
tp9780
Rp9781
(I1
(I1
tp9782
g11
I00
S'\x0f\xceI='
p9783
tp9784
bag1
(g2
(I0
tp9785
g4
tp9786
Rp9787
(I1
(I1
tp9788
g11
I00
S'\x0f\xceI='
p9789
tp9790
bag1
(g2
(I0
tp9791
g4
tp9792
Rp9793
(I1
(I1
tp9794
g11
I00
S'\r\xceI='
p9795
tp9796
bag1
(g2
(I0
tp9797
g4
tp9798
Rp9799
(I1
(I1
tp9800
g11
I00
S'\n\xceI='
p9801
tp9802
bag1
(g2
(I0
tp9803
g4
tp9804
Rp9805
(I1
(I1
tp9806
g11
I00
S'\t\xceI='
p9807
tp9808
bag1
(g2
(I0
tp9809
g4
tp9810
Rp9811
(I1
(I1
tp9812
g11
I00
S'\x08\xceI='
p9813
tp9814
bag1
(g2
(I0
tp9815
g4
tp9816
Rp9817
(I1
(I1
tp9818
g11
I00
S'\x08\xceI='
p9819
tp9820
bag1
(g2
(I0
tp9821
g4
tp9822
Rp9823
(I1
(I1
tp9824
g11
I00
S'\x05\xceI='
p9825
tp9826
bag1
(g2
(I0
tp9827
g4
tp9828
Rp9829
(I1
(I1
tp9830
g11
I00
S'\x04\xceI='
p9831
tp9832
bag1
(g2
(I0
tp9833
g4
tp9834
Rp9835
(I1
(I1
tp9836
g11
I00
S'\x04\xceI='
p9837
tp9838
bag1
(g2
(I0
tp9839
g4
tp9840
Rp9841
(I1
(I1
tp9842
g11
I00
S'\x04\xceI='
p9843
tp9844
bag1
(g2
(I0
tp9845
g4
tp9846
Rp9847
(I1
(I1
tp9848
g11
I00
S'\x03\xceI='
p9849
tp9850
bag1
(g2
(I0
tp9851
g4
tp9852
Rp9853
(I1
(I1
tp9854
g11
I00
S'\x00\xceI='
p9855
tp9856
bag1
(g2
(I0
tp9857
g4
tp9858
Rp9859
(I1
(I1
tp9860
g11
I00
S'\xfe\xcdI='
p9861
tp9862
bag1
(g2
(I0
tp9863
g4
tp9864
Rp9865
(I1
(I1
tp9866
g11
I00
S'\xfe\xcdI='
p9867
tp9868
bag1
(g2
(I0
tp9869
g4
tp9870
Rp9871
(I1
(I1
tp9872
g11
I00
S'\xfe\xcdI='
p9873
tp9874
bag1
(g2
(I0
tp9875
g4
tp9876
Rp9877
(I1
(I1
tp9878
g11
I00
S'\xfa\xcdI='
p9879
tp9880
bag1
(g2
(I0
tp9881
g4
tp9882
Rp9883
(I1
(I1
tp9884
g11
I00
S'\xf9\xcdI='
p9885
tp9886
bag1
(g2
(I0
tp9887
g4
tp9888
Rp9889
(I1
(I1
tp9890
g11
I00
S'\xf9\xcdI='
p9891
tp9892
bag1
(g2
(I0
tp9893
g4
tp9894
Rp9895
(I1
(I1
tp9896
g11
I00
S'\xf8\xcdI='
p9897
tp9898
bag1
(g2
(I0
tp9899
g4
tp9900
Rp9901
(I1
(I1
tp9902
g11
I00
S'\xf7\xcdI='
p9903
tp9904
bag1
(g2
(I0
tp9905
g4
tp9906
Rp9907
(I1
(I1
tp9908
g11
I00
S'\xf7\xcdI='
p9909
tp9910
bag1
(g2
(I0
tp9911
g4
tp9912
Rp9913
(I1
(I1
tp9914
g11
I00
S'\xf7\xcdI='
p9915
tp9916
bag1
(g2
(I0
tp9917
g4
tp9918
Rp9919
(I1
(I1
tp9920
g11
I00
S'\xf5\xcdI='
p9921
tp9922
bag1
(g2
(I0
tp9923
g4
tp9924
Rp9925
(I1
(I1
tp9926
g11
I00
S'\xf5\xcdI='
p9927
tp9928
bag1
(g2
(I0
tp9929
g4
tp9930
Rp9931
(I1
(I1
tp9932
g11
I00
S'\xf3\xcdI='
p9933
tp9934
bag1
(g2
(I0
tp9935
g4
tp9936
Rp9937
(I1
(I1
tp9938
g11
I00
S'\xf2\xcdI='
p9939
tp9940
bag1
(g2
(I0
tp9941
g4
tp9942
Rp9943
(I1
(I1
tp9944
g11
I00
S'\xf1\xcdI='
p9945
tp9946
bag1
(g2
(I0
tp9947
g4
tp9948
Rp9949
(I1
(I1
tp9950
g11
I00
S'\xf1\xcdI='
p9951
tp9952
bag1
(g2
(I0
tp9953
g4
tp9954
Rp9955
(I1
(I1
tp9956
g11
I00
S'\xf1\xcdI='
p9957
tp9958
bag1
(g2
(I0
tp9959
g4
tp9960
Rp9961
(I1
(I1
tp9962
g11
I00
S'\xee\xcdI='
p9963
tp9964
bag1
(g2
(I0
tp9965
g4
tp9966
Rp9967
(I1
(I1
tp9968
g11
I00
S'\xed\xcdI='
p9969
tp9970
bag1
(g2
(I0
tp9971
g4
tp9972
Rp9973
(I1
(I1
tp9974
g11
I00
S'\xec\xcdI='
p9975
tp9976
bag1
(g2
(I0
tp9977
g4
tp9978
Rp9979
(I1
(I1
tp9980
g11
I00
S'\xea\xcdI='
p9981
tp9982
bag1
(g2
(I0
tp9983
g4
tp9984
Rp9985
(I1
(I1
tp9986
g11
I00
S'\xe9\xcdI='
p9987
tp9988
bag1
(g2
(I0
tp9989
g4
tp9990
Rp9991
(I1
(I1
tp9992
g11
I00
S'\xe7\xcdI='
p9993
tp9994
bag1
(g2
(I0
tp9995
g4
tp9996
Rp9997
(I1
(I1
tp9998
g11
I00
S'\xe7\xcdI='
p9999
tp10000
bag1
(g2
(I0
tp10001
g4
tp10002
Rp10003
(I1
(I1
tp10004
g11
I00
S'\xe7\xcdI='
p10005
tp10006
bag1
(g2
(I0
tp10007
g4
tp10008
Rp10009
(I1
(I1
tp10010
g11
I00
S'\xe6\xcdI='
p10011
tp10012
bag1
(g2
(I0
tp10013
g4
tp10014
Rp10015
(I1
(I1
tp10016
g11
I00
S'\xe4\xcdI='
p10017
tp10018
bag1
(g2
(I0
tp10019
g4
tp10020
Rp10021
(I1
(I1
tp10022
g11
I00
S'\xe2\xcdI='
p10023
tp10024
bag1
(g2
(I0
tp10025
g4
tp10026
Rp10027
(I1
(I1
tp10028
g11
I00
S'\xdf\xcdI='
p10029
tp10030
bag1
(g2
(I0
tp10031
g4
tp10032
Rp10033
(I1
(I1
tp10034
g11
I00
S'\xdf\xcdI='
p10035
tp10036
bag1
(g2
(I0
tp10037
g4
tp10038
Rp10039
(I1
(I1
tp10040
g11
I00
S'\xdd\xcdI='
p10041
tp10042
bag1
(g2
(I0
tp10043
g4
tp10044
Rp10045
(I1
(I1
tp10046
g11
I00
S'\xdc\xcdI='
p10047
tp10048
bag1
(g2
(I0
tp10049
g4
tp10050
Rp10051
(I1
(I1
tp10052
g11
I00
S'\xda\xcdI='
p10053
tp10054
bag1
(g2
(I0
tp10055
g4
tp10056
Rp10057
(I1
(I1
tp10058
g11
I00
S'\xda\xcdI='
p10059
tp10060
bag1
(g2
(I0
tp10061
g4
tp10062
Rp10063
(I1
(I1
tp10064
g11
I00
S'\xda\xcdI='
p10065
tp10066
bag1
(g2
(I0
tp10067
g4
tp10068
Rp10069
(I1
(I1
tp10070
g11
I00
S'\xd8\xcdI='
p10071
tp10072
bag1
(g2
(I0
tp10073
g4
tp10074
Rp10075
(I1
(I1
tp10076
g11
I00
S'\xd8\xcdI='
p10077
tp10078
bag1
(g2
(I0
tp10079
g4
tp10080
Rp10081
(I1
(I1
tp10082
g11
I00
S'\xd7\xcdI='
p10083
tp10084
bag1
(g2
(I0
tp10085
g4
tp10086
Rp10087
(I1
(I1
tp10088
g11
I00
S'\xd6\xcdI='
p10089
tp10090
bag1
(g2
(I0
tp10091
g4
tp10092
Rp10093
(I1
(I1
tp10094
g11
I00
S'\xd5\xcdI='
p10095
tp10096
bag1
(g2
(I0
tp10097
g4
tp10098
Rp10099
(I1
(I1
tp10100
g11
I00
S'\xd3\xcdI='
p10101
tp10102
bag1
(g2
(I0
tp10103
g4
tp10104
Rp10105
(I1
(I1
tp10106
g11
I00
S'\xd3\xcdI='
p10107
tp10108
bag1
(g2
(I0
tp10109
g4
tp10110
Rp10111
(I1
(I1
tp10112
g11
I00
S'\xd3\xcdI='
p10113
tp10114
bag1
(g2
(I0
tp10115
g4
tp10116
Rp10117
(I1
(I1
tp10118
g11
I00
S'\xd2\xcdI='
p10119
tp10120
bag1
(g2
(I0
tp10121
g4
tp10122
Rp10123
(I1
(I1
tp10124
g11
I00
S'\xd2\xcdI='
p10125
tp10126
bag1
(g2
(I0
tp10127
g4
tp10128
Rp10129
(I1
(I1
tp10130
g11
I00
S'\xd0\xcdI='
p10131
tp10132
bag1
(g2
(I0
tp10133
g4
tp10134
Rp10135
(I1
(I1
tp10136
g11
I00
S'\xcf\xcdI='
p10137
tp10138
bag1
(g2
(I0
tp10139
g4
tp10140
Rp10141
(I1
(I1
tp10142
g11
I00
S'\xcf\xcdI='
p10143
tp10144
bag1
(g2
(I0
tp10145
g4
tp10146
Rp10147
(I1
(I1
tp10148
g11
I00
S'\xcf\xcdI='
p10149
tp10150
bag1
(g2
(I0
tp10151
g4
tp10152
Rp10153
(I1
(I1
tp10154
g11
I00
S'\xcf\xcdI='
p10155
tp10156
bag1
(g2
(I0
tp10157
g4
tp10158
Rp10159
(I1
(I1
tp10160
g11
I00
S'\xcb\xcdI='
p10161
tp10162
bag1
(g2
(I0
tp10163
g4
tp10164
Rp10165
(I1
(I1
tp10166
g11
I00
S'\xcb\xcdI='
p10167
tp10168
bag1
(g2
(I0
tp10169
g4
tp10170
Rp10171
(I1
(I1
tp10172
g11
I00
S'\xcb\xcdI='
p10173
tp10174
bag1
(g2
(I0
tp10175
g4
tp10176
Rp10177
(I1
(I1
tp10178
g11
I00
S'\xcb\xcdI='
p10179
tp10180
bag1
(g2
(I0
tp10181
g4
tp10182
Rp10183
(I1
(I1
tp10184
g11
I00
S'\xcb\xcdI='
p10185
tp10186
bag1
(g2
(I0
tp10187
g4
tp10188
Rp10189
(I1
(I1
tp10190
g11
I00
S'\xcb\xcdI='
p10191
tp10192
bag1
(g2
(I0
tp10193
g4
tp10194
Rp10195
(I1
(I1
tp10196
g11
I00
S'\xc7\xcdI='
p10197
tp10198
bag1
(g2
(I0
tp10199
g4
tp10200
Rp10201
(I1
(I1
tp10202
g11
I00
S'\xc7\xcdI='
p10203
tp10204
bag1
(g2
(I0
tp10205
g4
tp10206
Rp10207
(I1
(I1
tp10208
g11
I00
S'\xc6\xcdI='
p10209
tp10210
bag1
(g2
(I0
tp10211
g4
tp10212
Rp10213
(I1
(I1
tp10214
g11
I00
S'\xc6\xcdI='
p10215
tp10216
bag1
(g2
(I0
tp10217
g4
tp10218
Rp10219
(I1
(I1
tp10220
g11
I00
S'\xc5\xcdI='
p10221
tp10222
bag1
(g2
(I0
tp10223
g4
tp10224
Rp10225
(I1
(I1
tp10226
g11
I00
S'\xc1\xcdI='
p10227
tp10228
bag1
(g2
(I0
tp10229
g4
tp10230
Rp10231
(I1
(I1
tp10232
g11
I00
S'\xc1\xcdI='
p10233
tp10234
bag1
(g2
(I0
tp10235
g4
tp10236
Rp10237
(I1
(I1
tp10238
g11
I00
S'\xc0\xcdI='
p10239
tp10240
bag1
(g2
(I0
tp10241
g4
tp10242
Rp10243
(I1
(I1
tp10244
g11
I00
S'\xbe\xcdI='
p10245
tp10246
bag1
(g2
(I0
tp10247
g4
tp10248
Rp10249
(I1
(I1
tp10250
g11
I00
S'\xbe\xcdI='
p10251
tp10252
bag1
(g2
(I0
tp10253
g4
tp10254
Rp10255
(I1
(I1
tp10256
g11
I00
S'\xbc\xcdI='
p10257
tp10258
bag1
(g2
(I0
tp10259
g4
tp10260
Rp10261
(I1
(I1
tp10262
g11
I00
S'\xbc\xcdI='
p10263
tp10264
bag1
(g2
(I0
tp10265
g4
tp10266
Rp10267
(I1
(I1
tp10268
g11
I00
S'\xbc\xcdI='
p10269
tp10270
bag1
(g2
(I0
tp10271
g4
tp10272
Rp10273
(I1
(I1
tp10274
g11
I00
S'\xbc\xcdI='
p10275
tp10276
bag1
(g2
(I0
tp10277
g4
tp10278
Rp10279
(I1
(I1
tp10280
g11
I00
S'\xbc\xcdI='
p10281
tp10282
bag1
(g2
(I0
tp10283
g4
tp10284
Rp10285
(I1
(I1
tp10286
g11
I00
S'\xbc\xcdI='
p10287
tp10288
bag1
(g2
(I0
tp10289
g4
tp10290
Rp10291
(I1
(I1
tp10292
g11
I00
S'\xb9\xcdI='
p10293
tp10294
bag1
(g2
(I0
tp10295
g4
tp10296
Rp10297
(I1
(I1
tp10298
g11
I00
S'\xb9\xcdI='
p10299
tp10300
bag1
(g2
(I0
tp10301
g4
tp10302
Rp10303
(I1
(I1
tp10304
g11
I00
S'\xb9\xcdI='
p10305
tp10306
bag1
(g2
(I0
tp10307
g4
tp10308
Rp10309
(I1
(I1
tp10310
g11
I00
S'\xb8\xcdI='
p10311
tp10312
bag1
(g2
(I0
tp10313
g4
tp10314
Rp10315
(I1
(I1
tp10316
g11
I00
S'\xb7\xcdI='
p10317
tp10318
bag1
(g2
(I0
tp10319
g4
tp10320
Rp10321
(I1
(I1
tp10322
g11
I00
S'\xb6\xcdI='
p10323
tp10324
bag1
(g2
(I0
tp10325
g4
tp10326
Rp10327
(I1
(I1
tp10328
g11
I00
S'\xb4\xcdI='
p10329
tp10330
bag1
(g2
(I0
tp10331
g4
tp10332
Rp10333
(I1
(I1
tp10334
g11
I00
S'\xb3\xcdI='
p10335
tp10336
bag1
(g2
(I0
tp10337
g4
tp10338
Rp10339
(I1
(I1
tp10340
g11
I00
S'\xb2\xcdI='
p10341
tp10342
bag1
(g2
(I0
tp10343
g4
tp10344
Rp10345
(I1
(I1
tp10346
g11
I00
S'\xb2\xcdI='
p10347
tp10348
bag1
(g2
(I0
tp10349
g4
tp10350
Rp10351
(I1
(I1
tp10352
g11
I00
S'\xb2\xcdI='
p10353
tp10354
bag1
(g2
(I0
tp10355
g4
tp10356
Rp10357
(I1
(I1
tp10358
g11
I00
S'\xb1\xcdI='
p10359
tp10360
bag1
(g2
(I0
tp10361
g4
tp10362
Rp10363
(I1
(I1
tp10364
g11
I00
S'\xb1\xcdI='
p10365
tp10366
bag1
(g2
(I0
tp10367
g4
tp10368
Rp10369
(I1
(I1
tp10370
g11
I00
S'\xb1\xcdI='
p10371
tp10372
bag1
(g2
(I0
tp10373
g4
tp10374
Rp10375
(I1
(I1
tp10376
g11
I00
S'\xb1\xcdI='
p10377
tp10378
bag1
(g2
(I0
tp10379
g4
tp10380
Rp10381
(I1
(I1
tp10382
g11
I00
S'\xb0\xcdI='
p10383
tp10384
bag1
(g2
(I0
tp10385
g4
tp10386
Rp10387
(I1
(I1
tp10388
g11
I00
S'\xae\xcdI='
p10389
tp10390
bag1
(g2
(I0
tp10391
g4
tp10392
Rp10393
(I1
(I1
tp10394
g11
I00
S'\xad\xcdI='
p10395
tp10396
bag1
(g2
(I0
tp10397
g4
tp10398
Rp10399
(I1
(I1
tp10400
g11
I00
S'\xad\xcdI='
p10401
tp10402
bag1
(g2
(I0
tp10403
g4
tp10404
Rp10405
(I1
(I1
tp10406
g11
I00
S'\xad\xcdI='
p10407
tp10408
bag1
(g2
(I0
tp10409
g4
tp10410
Rp10411
(I1
(I1
tp10412
g11
I00
S'\xad\xcdI='
p10413
tp10414
bag1
(g2
(I0
tp10415
g4
tp10416
Rp10417
(I1
(I1
tp10418
g11
I00
S'\xad\xcdI='
p10419
tp10420
bag1
(g2
(I0
tp10421
g4
tp10422
Rp10423
(I1
(I1
tp10424
g11
I00
S'\xac\xcdI='
p10425
tp10426
bag1
(g2
(I0
tp10427
g4
tp10428
Rp10429
(I1
(I1
tp10430
g11
I00
S'\xaa\xcdI='
p10431
tp10432
bag1
(g2
(I0
tp10433
g4
tp10434
Rp10435
(I1
(I1
tp10436
g11
I00
S'\xa8\xcdI='
p10437
tp10438
bag1
(g2
(I0
tp10439
g4
tp10440
Rp10441
(I1
(I1
tp10442
g11
I00
S'\xa7\xcdI='
p10443
tp10444
bag1
(g2
(I0
tp10445
g4
tp10446
Rp10447
(I1
(I1
tp10448
g11
I00
S'\xa7\xcdI='
p10449
tp10450
bag1
(g2
(I0
tp10451
g4
tp10452
Rp10453
(I1
(I1
tp10454
g11
I00
S'\xa6\xcdI='
p10455
tp10456
bag1
(g2
(I0
tp10457
g4
tp10458
Rp10459
(I1
(I1
tp10460
g11
I00
S'\xa6\xcdI='
p10461
tp10462
bag1
(g2
(I0
tp10463
g4
tp10464
Rp10465
(I1
(I1
tp10466
g11
I00
S'\xa3\xcdI='
p10467
tp10468
bag1
(g2
(I0
tp10469
g4
tp10470
Rp10471
(I1
(I1
tp10472
g11
I00
S'\xa3\xcdI='
p10473
tp10474
bag1
(g2
(I0
tp10475
g4
tp10476
Rp10477
(I1
(I1
tp10478
g11
I00
S'\xa2\xcdI='
p10479
tp10480
bag1
(g2
(I0
tp10481
g4
tp10482
Rp10483
(I1
(I1
tp10484
g11
I00
S'\xa1\xcdI='
p10485
tp10486
bag1
(g2
(I0
tp10487
g4
tp10488
Rp10489
(I1
(I1
tp10490
g11
I00
S'\xa1\xcdI='
p10491
tp10492
bag1
(g2
(I0
tp10493
g4
tp10494
Rp10495
(I1
(I1
tp10496
g11
I00
S'\xa0\xcdI='
p10497
tp10498
bag1
(g2
(I0
tp10499
g4
tp10500
Rp10501
(I1
(I1
tp10502
g11
I00
S'\x9e\xcdI='
p10503
tp10504
bag1
(g2
(I0
tp10505
g4
tp10506
Rp10507
(I1
(I1
tp10508
g11
I00
S'\x9e\xcdI='
p10509
tp10510
bag1
(g2
(I0
tp10511
g4
tp10512
Rp10513
(I1
(I1
tp10514
g11
I00
S'\x9e\xcdI='
p10515
tp10516
bag1
(g2
(I0
tp10517
g4
tp10518
Rp10519
(I1
(I1
tp10520
g11
I00
S'\x9e\xcdI='
p10521
tp10522
bag1
(g2
(I0
tp10523
g4
tp10524
Rp10525
(I1
(I1
tp10526
g11
I00
S'\x9c\xcdI='
p10527
tp10528
bag1
(g2
(I0
tp10529
g4
tp10530
Rp10531
(I1
(I1
tp10532
g11
I00
S'\x9c\xcdI='
p10533
tp10534
bag1
(g2
(I0
tp10535
g4
tp10536
Rp10537
(I1
(I1
tp10538
g11
I00
S'\x99\xcdI='
p10539
tp10540
bag1
(g2
(I0
tp10541
g4
tp10542
Rp10543
(I1
(I1
tp10544
g11
I00
S'\x99\xcdI='
p10545
tp10546
bag1
(g2
(I0
tp10547
g4
tp10548
Rp10549
(I1
(I1
tp10550
g11
I00
S'\x99\xcdI='
p10551
tp10552
bag1
(g2
(I0
tp10553
g4
tp10554
Rp10555
(I1
(I1
tp10556
g11
I00
S'\x99\xcdI='
p10557
tp10558
bag1
(g2
(I0
tp10559
g4
tp10560
Rp10561
(I1
(I1
tp10562
g11
I00
S'\x99\xcdI='
p10563
tp10564
bag1
(g2
(I0
tp10565
g4
tp10566
Rp10567
(I1
(I1
tp10568
g11
I00
S'\x99\xcdI='
p10569
tp10570
bag1
(g2
(I0
tp10571
g4
tp10572
Rp10573
(I1
(I1
tp10574
g11
I00
S'\x99\xcdI='
p10575
tp10576
bag1
(g2
(I0
tp10577
g4
tp10578
Rp10579
(I1
(I1
tp10580
g11
I00
S'\x97\xcdI='
p10581
tp10582
bag1
(g2
(I0
tp10583
g4
tp10584
Rp10585
(I1
(I1
tp10586
g11
I00
S'\x97\xcdI='
p10587
tp10588
bag1
(g2
(I0
tp10589
g4
tp10590
Rp10591
(I1
(I1
tp10592
g11
I00
S'\x97\xcdI='
p10593
tp10594
bag1
(g2
(I0
tp10595
g4
tp10596
Rp10597
(I1
(I1
tp10598
g11
I00
S'\x97\xcdI='
p10599
tp10600
bag1
(g2
(I0
tp10601
g4
tp10602
Rp10603
(I1
(I1
tp10604
g11
I00
S'\x97\xcdI='
p10605
tp10606
bag1
(g2
(I0
tp10607
g4
tp10608
Rp10609
(I1
(I1
tp10610
g11
I00
S'\x96\xcdI='
p10611
tp10612
bag1
(g2
(I0
tp10613
g4
tp10614
Rp10615
(I1
(I1
tp10616
g11
I00
S'\x94\xcdI='
p10617
tp10618
bag1
(g2
(I0
tp10619
g4
tp10620
Rp10621
(I1
(I1
tp10622
g11
I00
S'\x93\xcdI='
p10623
tp10624
bag1
(g2
(I0
tp10625
g4
tp10626
Rp10627
(I1
(I1
tp10628
g11
I00
S'\x92\xcdI='
p10629
tp10630
bag1
(g2
(I0
tp10631
g4
tp10632
Rp10633
(I1
(I1
tp10634
g11
I00
S'\x92\xcdI='
p10635
tp10636
bag1
(g2
(I0
tp10637
g4
tp10638
Rp10639
(I1
(I1
tp10640
g11
I00
S'\x92\xcdI='
p10641
tp10642
bag1
(g2
(I0
tp10643
g4
tp10644
Rp10645
(I1
(I1
tp10646
g11
I00
S'\x91\xcdI='
p10647
tp10648
bag1
(g2
(I0
tp10649
g4
tp10650
Rp10651
(I1
(I1
tp10652
g11
I00
S'\x91\xcdI='
p10653
tp10654
bag1
(g2
(I0
tp10655
g4
tp10656
Rp10657
(I1
(I1
tp10658
g11
I00
S'\x8e\xcdI='
p10659
tp10660
bag1
(g2
(I0
tp10661
g4
tp10662
Rp10663
(I1
(I1
tp10664
g11
I00
S'\x8d\xcdI='
p10665
tp10666
bag1
(g2
(I0
tp10667
g4
tp10668
Rp10669
(I1
(I1
tp10670
g11
I00
S'\x8d\xcdI='
p10671
tp10672
bag1
(g2
(I0
tp10673
g4
tp10674
Rp10675
(I1
(I1
tp10676
g11
I00
S'\x8c\xcdI='
p10677
tp10678
bag1
(g2
(I0
tp10679
g4
tp10680
Rp10681
(I1
(I1
tp10682
g11
I00
S'\x8c\xcdI='
p10683
tp10684
bag1
(g2
(I0
tp10685
g4
tp10686
Rp10687
(I1
(I1
tp10688
g11
I00
S'\x8c\xcdI='
p10689
tp10690
bag1
(g2
(I0
tp10691
g4
tp10692
Rp10693
(I1
(I1
tp10694
g11
I00
S'\x89\xcdI='
p10695
tp10696
bag1
(g2
(I0
tp10697
g4
tp10698
Rp10699
(I1
(I1
tp10700
g11
I00
S'\x89\xcdI='
p10701
tp10702
bag1
(g2
(I0
tp10703
g4
tp10704
Rp10705
(I1
(I1
tp10706
g11
I00
S'\x88\xcdI='
p10707
tp10708
bag1
(g2
(I0
tp10709
g4
tp10710
Rp10711
(I1
(I1
tp10712
g11
I00
S'\x87\xcdI='
p10713
tp10714
bag1
(g2
(I0
tp10715
g4
tp10716
Rp10717
(I1
(I1
tp10718
g11
I00
S'\x86\xcdI='
p10719
tp10720
bag1
(g2
(I0
tp10721
g4
tp10722
Rp10723
(I1
(I1
tp10724
g11
I00
S'\x86\xcdI='
p10725
tp10726
bag1
(g2
(I0
tp10727
g4
tp10728
Rp10729
(I1
(I1
tp10730
g11
I00
S'\x86\xcdI='
p10731
tp10732
bag1
(g2
(I0
tp10733
g4
tp10734
Rp10735
(I1
(I1
tp10736
g11
I00
S'\x86\xcdI='
p10737
tp10738
bag1
(g2
(I0
tp10739
g4
tp10740
Rp10741
(I1
(I1
tp10742
g11
I00
S'\x84\xcdI='
p10743
tp10744
bag1
(g2
(I0
tp10745
g4
tp10746
Rp10747
(I1
(I1
tp10748
g11
I00
S'\x84\xcdI='
p10749
tp10750
bag1
(g2
(I0
tp10751
g4
tp10752
Rp10753
(I1
(I1
tp10754
g11
I00
S'\x82\xcdI='
p10755
tp10756
bag1
(g2
(I0
tp10757
g4
tp10758
Rp10759
(I1
(I1
tp10760
g11
I00
S'\x82\xcdI='
p10761
tp10762
bag1
(g2
(I0
tp10763
g4
tp10764
Rp10765
(I1
(I1
tp10766
g11
I00
S'\x82\xcdI='
p10767
tp10768
bag1
(g2
(I0
tp10769
g4
tp10770
Rp10771
(I1
(I1
tp10772
g11
I00
S'\x82\xcdI='
p10773
tp10774
bag1
(g2
(I0
tp10775
g4
tp10776
Rp10777
(I1
(I1
tp10778
g11
I00
S'\x82\xcdI='
p10779
tp10780
bag1
(g2
(I0
tp10781
g4
tp10782
Rp10783
(I1
(I1
tp10784
g11
I00
S'\x7f\xcdI='
p10785
tp10786
bag1
(g2
(I0
tp10787
g4
tp10788
Rp10789
(I1
(I1
tp10790
g11
I00
S'\x7f\xcdI='
p10791
tp10792
bag1
(g2
(I0
tp10793
g4
tp10794
Rp10795
(I1
(I1
tp10796
g11
I00
S'~\xcdI='
p10797
tp10798
bag1
(g2
(I0
tp10799
g4
tp10800
Rp10801
(I1
(I1
tp10802
g11
I00
S'~\xcdI='
p10803
tp10804
bag1
(g2
(I0
tp10805
g4
tp10806
Rp10807
(I1
(I1
tp10808
g11
I00
S'~\xcdI='
p10809
tp10810
bag1
(g2
(I0
tp10811
g4
tp10812
Rp10813
(I1
(I1
tp10814
g11
I00
S'~\xcdI='
p10815
tp10816
bag1
(g2
(I0
tp10817
g4
tp10818
Rp10819
(I1
(I1
tp10820
g11
I00
S'}\xcdI='
p10821
tp10822
bag1
(g2
(I0
tp10823
g4
tp10824
Rp10825
(I1
(I1
tp10826
g11
I00
S'{\xcdI='
p10827
tp10828
bag1
(g2
(I0
tp10829
g4
tp10830
Rp10831
(I1
(I1
tp10832
g11
I00
S'y\xcdI='
p10833
tp10834
bag1
(g2
(I0
tp10835
g4
tp10836
Rp10837
(I1
(I1
tp10838
g11
I00
S'y\xcdI='
p10839
tp10840
bag1
(g2
(I0
tp10841
g4
tp10842
Rp10843
(I1
(I1
tp10844
g11
I00
S'y\xcdI='
p10845
tp10846
bag1
(g2
(I0
tp10847
g4
tp10848
Rp10849
(I1
(I1
tp10850
g11
I00
S'y\xcdI='
p10851
tp10852
bag1
(g2
(I0
tp10853
g4
tp10854
Rp10855
(I1
(I1
tp10856
g11
I00
S'y\xcdI='
p10857
tp10858
bag1
(g2
(I0
tp10859
g4
tp10860
Rp10861
(I1
(I1
tp10862
g11
I00
S'w\xcdI='
p10863
tp10864
bag1
(g2
(I0
tp10865
g4
tp10866
Rp10867
(I1
(I1
tp10868
g11
I00
S'w\xcdI='
p10869
tp10870
bag1
(g2
(I0
tp10871
g4
tp10872
Rp10873
(I1
(I1
tp10874
g11
I00
S'w\xcdI='
p10875
tp10876
bag1
(g2
(I0
tp10877
g4
tp10878
Rp10879
(I1
(I1
tp10880
g11
I00
S'w\xcdI='
p10881
tp10882
bag1
(g2
(I0
tp10883
g4
tp10884
Rp10885
(I1
(I1
tp10886
g11
I00
S'w\xcdI='
p10887
tp10888
bag1
(g2
(I0
tp10889
g4
tp10890
Rp10891
(I1
(I1
tp10892
g11
I00
S'v\xcdI='
p10893
tp10894
bag1
(g2
(I0
tp10895
g4
tp10896
Rp10897
(I1
(I1
tp10898
g11
I00
S'v\xcdI='
p10899
tp10900
bag1
(g2
(I0
tp10901
g4
tp10902
Rp10903
(I1
(I1
tp10904
g11
I00
S'v\xcdI='
p10905
tp10906
bag1
(g2
(I0
tp10907
g4
tp10908
Rp10909
(I1
(I1
tp10910
g11
I00
S't\xcdI='
p10911
tp10912
bag1
(g2
(I0
tp10913
g4
tp10914
Rp10915
(I1
(I1
tp10916
g11
I00
S't\xcdI='
p10917
tp10918
bag1
(g2
(I0
tp10919
g4
tp10920
Rp10921
(I1
(I1
tp10922
g11
I00
S't\xcdI='
p10923
tp10924
bag1
(g2
(I0
tp10925
g4
tp10926
Rp10927
(I1
(I1
tp10928
g11
I00
S't\xcdI='
p10929
tp10930
bag1
(g2
(I0
tp10931
g4
tp10932
Rp10933
(I1
(I1
tp10934
g11
I00
S'r\xcdI='
p10935
tp10936
bag1
(g2
(I0
tp10937
g4
tp10938
Rp10939
(I1
(I1
tp10940
g11
I00
S'r\xcdI='
p10941
tp10942
bag1
(g2
(I0
tp10943
g4
tp10944
Rp10945
(I1
(I1
tp10946
g11
I00
S'r\xcdI='
p10947
tp10948
bag1
(g2
(I0
tp10949
g4
tp10950
Rp10951
(I1
(I1
tp10952
g11
I00
S'o\xcdI='
p10953
tp10954
bag1
(g2
(I0
tp10955
g4
tp10956
Rp10957
(I1
(I1
tp10958
g11
I00
S'm\xcdI='
p10959
tp10960
bag1
(g2
(I0
tp10961
g4
tp10962
Rp10963
(I1
(I1
tp10964
g11
I00
S'm\xcdI='
p10965
tp10966
bag1
(g2
(I0
tp10967
g4
tp10968
Rp10969
(I1
(I1
tp10970
g11
I00
S'm\xcdI='
p10971
tp10972
bag1
(g2
(I0
tp10973
g4
tp10974
Rp10975
(I1
(I1
tp10976
g11
I00
S'm\xcdI='
p10977
tp10978
bag1
(g2
(I0
tp10979
g4
tp10980
Rp10981
(I1
(I1
tp10982
g11
I00
S'l\xcdI='
p10983
tp10984
bag1
(g2
(I0
tp10985
g4
tp10986
Rp10987
(I1
(I1
tp10988
g11
I00
S'l\xcdI='
p10989
tp10990
bag1
(g2
(I0
tp10991
g4
tp10992
Rp10993
(I1
(I1
tp10994
g11
I00
S'l\xcdI='
p10995
tp10996
bag1
(g2
(I0
tp10997
g4
tp10998
Rp10999
(I1
(I1
tp11000
g11
I00
S'h\xcdI='
p11001
tp11002
bag1
(g2
(I0
tp11003
g4
tp11004
Rp11005
(I1
(I1
tp11006
g11
I00
S'h\xcdI='
p11007
tp11008
bag1
(g2
(I0
tp11009
g4
tp11010
Rp11011
(I1
(I1
tp11012
g11
I00
S'h\xcdI='
p11013
tp11014
bag1
(g2
(I0
tp11015
g4
tp11016
Rp11017
(I1
(I1
tp11018
g11
I00
S'h\xcdI='
p11019
tp11020
bag1
(g2
(I0
tp11021
g4
tp11022
Rp11023
(I1
(I1
tp11024
g11
I00
S'h\xcdI='
p11025
tp11026
bag1
(g2
(I0
tp11027
g4
tp11028
Rp11029
(I1
(I1
tp11030
g11
I00
S'h\xcdI='
p11031
tp11032
bag1
(g2
(I0
tp11033
g4
tp11034
Rp11035
(I1
(I1
tp11036
g11
I00
S'g\xcdI='
p11037
tp11038
bag1
(g2
(I0
tp11039
g4
tp11040
Rp11041
(I1
(I1
tp11042
g11
I00
S'g\xcdI='
p11043
tp11044
bag1
(g2
(I0
tp11045
g4
tp11046
Rp11047
(I1
(I1
tp11048
g11
I00
S'f\xcdI='
p11049
tp11050
bag1
(g2
(I0
tp11051
g4
tp11052
Rp11053
(I1
(I1
tp11054
g11
I00
S'd\xcdI='
p11055
tp11056
bag1
(g2
(I0
tp11057
g4
tp11058
Rp11059
(I1
(I1
tp11060
g11
I00
S'b\xcdI='
p11061
tp11062
bag1
(g2
(I0
tp11063
g4
tp11064
Rp11065
(I1
(I1
tp11066
g11
I00
S'b\xcdI='
p11067
tp11068
bag1
(g2
(I0
tp11069
g4
tp11070
Rp11071
(I1
(I1
tp11072
g11
I00
S'b\xcdI='
p11073
tp11074
bag1
(g2
(I0
tp11075
g4
tp11076
Rp11077
(I1
(I1
tp11078
g11
I00
S'b\xcdI='
p11079
tp11080
bag1
(g2
(I0
tp11081
g4
tp11082
Rp11083
(I1
(I1
tp11084
g11
I00
S'a\xcdI='
p11085
tp11086
bag1
(g2
(I0
tp11087
g4
tp11088
Rp11089
(I1
(I1
tp11090
g11
I00
S'_\xcdI='
p11091
tp11092
bag1
(g2
(I0
tp11093
g4
tp11094
Rp11095
(I1
(I1
tp11096
g11
I00
S'_\xcdI='
p11097
tp11098
bag1
(g2
(I0
tp11099
g4
tp11100
Rp11101
(I1
(I1
tp11102
g11
I00
S'_\xcdI='
p11103
tp11104
bag1
(g2
(I0
tp11105
g4
tp11106
Rp11107
(I1
(I1
tp11108
g11
I00
S']\xcdI='
p11109
tp11110
bag1
(g2
(I0
tp11111
g4
tp11112
Rp11113
(I1
(I1
tp11114
g11
I00
S']\xcdI='
p11115
tp11116
bag1
(g2
(I0
tp11117
g4
tp11118
Rp11119
(I1
(I1
tp11120
g11
I00
S']\xcdI='
p11121
tp11122
bag1
(g2
(I0
tp11123
g4
tp11124
Rp11125
(I1
(I1
tp11126
g11
I00
S']\xcdI='
p11127
tp11128
bag1
(g2
(I0
tp11129
g4
tp11130
Rp11131
(I1
(I1
tp11132
g11
I00
S']\xcdI='
p11133
tp11134
bag1
(g2
(I0
tp11135
g4
tp11136
Rp11137
(I1
(I1
tp11138
g11
I00
S']\xcdI='
p11139
tp11140
bag1
(g2
(I0
tp11141
g4
tp11142
Rp11143
(I1
(I1
tp11144
g11
I00
S']\xcdI='
p11145
tp11146
bag1
(g2
(I0
tp11147
g4
tp11148
Rp11149
(I1
(I1
tp11150
g11
I00
S']\xcdI='
p11151
tp11152
bag1
(g2
(I0
tp11153
g4
tp11154
Rp11155
(I1
(I1
tp11156
g11
I00
S'\\\xcdI='
p11157
tp11158
bag1
(g2
(I0
tp11159
g4
tp11160
Rp11161
(I1
(I1
tp11162
g11
I00
S'Z\xcdI='
p11163
tp11164
bag1
(g2
(I0
tp11165
g4
tp11166
Rp11167
(I1
(I1
tp11168
g11
I00
S'Z\xcdI='
p11169
tp11170
bag1
(g2
(I0
tp11171
g4
tp11172
Rp11173
(I1
(I1
tp11174
g11
I00
S'Z\xcdI='
p11175
tp11176
bag1
(g2
(I0
tp11177
g4
tp11178
Rp11179
(I1
(I1
tp11180
g11
I00
S'Y\xcdI='
p11181
tp11182
bag1
(g2
(I0
tp11183
g4
tp11184
Rp11185
(I1
(I1
tp11186
g11
I00
S'X\xcdI='
p11187
tp11188
bag1
(g2
(I0
tp11189
g4
tp11190
Rp11191
(I1
(I1
tp11192
g11
I00
S'X\xcdI='
p11193
tp11194
bag1
(g2
(I0
tp11195
g4
tp11196
Rp11197
(I1
(I1
tp11198
g11
I00
S'X\xcdI='
p11199
tp11200
bag1
(g2
(I0
tp11201
g4
tp11202
Rp11203
(I1
(I1
tp11204
g11
I00
S'V\xcdI='
p11205
tp11206
bag1
(g2
(I0
tp11207
g4
tp11208
Rp11209
(I1
(I1
tp11210
g11
I00
S'V\xcdI='
p11211
tp11212
bag1
(g2
(I0
tp11213
g4
tp11214
Rp11215
(I1
(I1
tp11216
g11
I00
S'V\xcdI='
p11217
tp11218
bag1
(g2
(I0
tp11219
g4
tp11220
Rp11221
(I1
(I1
tp11222
g11
I00
S'V\xcdI='
p11223
tp11224
bag1
(g2
(I0
tp11225
g4
tp11226
Rp11227
(I1
(I1
tp11228
g11
I00
S'V\xcdI='
p11229
tp11230
bag1
(g2
(I0
tp11231
g4
tp11232
Rp11233
(I1
(I1
tp11234
g11
I00
S'V\xcdI='
p11235
tp11236
bag1
(g2
(I0
tp11237
g4
tp11238
Rp11239
(I1
(I1
tp11240
g11
I00
S'V\xcdI='
p11241
tp11242
bag1
(g2
(I0
tp11243
g4
tp11244
Rp11245
(I1
(I1
tp11246
g11
I00
S'V\xcdI='
p11247
tp11248
bag1
(g2
(I0
tp11249
g4
tp11250
Rp11251
(I1
(I1
tp11252
g11
I00
S'V\xcdI='
p11253
tp11254
bag1
(g2
(I0
tp11255
g4
tp11256
Rp11257
(I1
(I1
tp11258
g11
I00
S'V\xcdI='
p11259
tp11260
bag1
(g2
(I0
tp11261
g4
tp11262
Rp11263
(I1
(I1
tp11264
g11
I00
S'S\xcdI='
p11265
tp11266
bag1
(g2
(I0
tp11267
g4
tp11268
Rp11269
(I1
(I1
tp11270
g11
I00
S'S\xcdI='
p11271
tp11272
bag1
(g2
(I0
tp11273
g4
tp11274
Rp11275
(I1
(I1
tp11276
g11
I00
S'S\xcdI='
p11277
tp11278
bag1
(g2
(I0
tp11279
g4
tp11280
Rp11281
(I1
(I1
tp11282
g11
I00
S'R\xcdI='
p11283
tp11284
bag1
(g2
(I0
tp11285
g4
tp11286
Rp11287
(I1
(I1
tp11288
g11
I00
S'R\xcdI='
p11289
tp11290
bag1
(g2
(I0
tp11291
g4
tp11292
Rp11293
(I1
(I1
tp11294
g11
I00
S'R\xcdI='
p11295
tp11296
bag1
(g2
(I0
tp11297
g4
tp11298
Rp11299
(I1
(I1
tp11300
g11
I00
S'R\xcdI='
p11301
tp11302
bag1
(g2
(I0
tp11303
g4
tp11304
Rp11305
(I1
(I1
tp11306
g11
I00
S'R\xcdI='
p11307
tp11308
bag1
(g2
(I0
tp11309
g4
tp11310
Rp11311
(I1
(I1
tp11312
g11
I00
S'N\xcdI='
p11313
tp11314
bag1
(g2
(I0
tp11315
g4
tp11316
Rp11317
(I1
(I1
tp11318
g11
I00
S'N\xcdI='
p11319
tp11320
bag1
(g2
(I0
tp11321
g4
tp11322
Rp11323
(I1
(I1
tp11324
g11
I00
S'N\xcdI='
p11325
tp11326
bag1
(g2
(I0
tp11327
g4
tp11328
Rp11329
(I1
(I1
tp11330
g11
I00
S'M\xcdI='
p11331
tp11332
bag1
(g2
(I0
tp11333
g4
tp11334
Rp11335
(I1
(I1
tp11336
g11
I00
S'M\xcdI='
p11337
tp11338
bag1
(g2
(I0
tp11339
g4
tp11340
Rp11341
(I1
(I1
tp11342
g11
I00
S'M\xcdI='
p11343
tp11344
bag1
(g2
(I0
tp11345
g4
tp11346
Rp11347
(I1
(I1
tp11348
g11
I00
S'K\xcdI='
p11349
tp11350
bag1
(g2
(I0
tp11351
g4
tp11352
Rp11353
(I1
(I1
tp11354
g11
I00
S'K\xcdI='
p11355
tp11356
bag1
(g2
(I0
tp11357
g4
tp11358
Rp11359
(I1
(I1
tp11360
g11
I00
S'K\xcdI='
p11361
tp11362
bag1
(g2
(I0
tp11363
g4
tp11364
Rp11365
(I1
(I1
tp11366
g11
I00
S'K\xcdI='
p11367
tp11368
bag1
(g2
(I0
tp11369
g4
tp11370
Rp11371
(I1
(I1
tp11372
g11
I00
S'I\xcdI='
p11373
tp11374
bag1
(g2
(I0
tp11375
g4
tp11376
Rp11377
(I1
(I1
tp11378
g11
I00
S'H\xcdI='
p11379
tp11380
bag1
(g2
(I0
tp11381
g4
tp11382
Rp11383
(I1
(I1
tp11384
g11
I00
S'H\xcdI='
p11385
tp11386
bag1
(g2
(I0
tp11387
g4
tp11388
Rp11389
(I1
(I1
tp11390
g11
I00
S'H\xcdI='
p11391
tp11392
bag1
(g2
(I0
tp11393
g4
tp11394
Rp11395
(I1
(I1
tp11396
g11
I00
S'H\xcdI='
p11397
tp11398
bag1
(g2
(I0
tp11399
g4
tp11400
Rp11401
(I1
(I1
tp11402
g11
I00
S'H\xcdI='
p11403
tp11404
bag1
(g2
(I0
tp11405
g4
tp11406
Rp11407
(I1
(I1
tp11408
g11
I00
S'G\xcdI='
p11409
tp11410
bag1
(g2
(I0
tp11411
g4
tp11412
Rp11413
(I1
(I1
tp11414
g11
I00
S'G\xcdI='
p11415
tp11416
bag1
(g2
(I0
tp11417
g4
tp11418
Rp11419
(I1
(I1
tp11420
g11
I00
S'E\xcdI='
p11421
tp11422
bag1
(g2
(I0
tp11423
g4
tp11424
Rp11425
(I1
(I1
tp11426
g11
I00
S'E\xcdI='
p11427
tp11428
bag1
(g2
(I0
tp11429
g4
tp11430
Rp11431
(I1
(I1
tp11432
g11
I00
S'D\xcdI='
p11433
tp11434
bag1
(g2
(I0
tp11435
g4
tp11436
Rp11437
(I1
(I1
tp11438
g11
I00
S'D\xcdI='
p11439
tp11440
bag1
(g2
(I0
tp11441
g4
tp11442
Rp11443
(I1
(I1
tp11444
g11
I00
S'B\xcdI='
p11445
tp11446
bag1
(g2
(I0
tp11447
g4
tp11448
Rp11449
(I1
(I1
tp11450
g11
I00
S'B\xcdI='
p11451
tp11452
bag1
(g2
(I0
tp11453
g4
tp11454
Rp11455
(I1
(I1
tp11456
g11
I00
S'B\xcdI='
p11457
tp11458
bag1
(g2
(I0
tp11459
g4
tp11460
Rp11461
(I1
(I1
tp11462
g11
I00
S'B\xcdI='
p11463
tp11464
bag1
(g2
(I0
tp11465
g4
tp11466
Rp11467
(I1
(I1
tp11468
g11
I00
S'B\xcdI='
p11469
tp11470
bag1
(g2
(I0
tp11471
g4
tp11472
Rp11473
(I1
(I1
tp11474
g11
I00
S'B\xcdI='
p11475
tp11476
bag1
(g2
(I0
tp11477
g4
tp11478
Rp11479
(I1
(I1
tp11480
g11
I00
S'@\xcdI='
p11481
tp11482
bag1
(g2
(I0
tp11483
g4
tp11484
Rp11485
(I1
(I1
tp11486
g11
I00
S'@\xcdI='
p11487
tp11488
bag1
(g2
(I0
tp11489
g4
tp11490
Rp11491
(I1
(I1
tp11492
g11
I00
S'?\xcdI='
p11493
tp11494
bag1
(g2
(I0
tp11495
g4
tp11496
Rp11497
(I1
(I1
tp11498
g11
I00
S'?\xcdI='
p11499
tp11500
bag1
(g2
(I0
tp11501
g4
tp11502
Rp11503
(I1
(I1
tp11504
g11
I00
S'=\xcdI='
p11505
tp11506
bag1
(g2
(I0
tp11507
g4
tp11508
Rp11509
(I1
(I1
tp11510
g11
I00
S'=\xcdI='
p11511
tp11512
bag1
(g2
(I0
tp11513
g4
tp11514
Rp11515
(I1
(I1
tp11516
g11
I00
S'=\xcdI='
p11517
tp11518
bag1
(g2
(I0
tp11519
g4
tp11520
Rp11521
(I1
(I1
tp11522
g11
I00
S'=\xcdI='
p11523
tp11524
bag1
(g2
(I0
tp11525
g4
tp11526
Rp11527
(I1
(I1
tp11528
g11
I00
S'=\xcdI='
p11529
tp11530
bag1
(g2
(I0
tp11531
g4
tp11532
Rp11533
(I1
(I1
tp11534
g11
I00
S'=\xcdI='
p11535
tp11536
bag1
(g2
(I0
tp11537
g4
tp11538
Rp11539
(I1
(I1
tp11540
g11
I00
S'=\xcdI='
p11541
tp11542
bag1
(g2
(I0
tp11543
g4
tp11544
Rp11545
(I1
(I1
tp11546
g11
I00
S';\xcdI='
p11547
tp11548
bag1
(g2
(I0
tp11549
g4
tp11550
Rp11551
(I1
(I1
tp11552
g11
I00
S'<\xcdI='
p11553
tp11554
bag1
(g2
(I0
tp11555
g4
tp11556
Rp11557
(I1
(I1
tp11558
g11
I00
S':\xcdI='
p11559
tp11560
bag1
(g2
(I0
tp11561
g4
tp11562
Rp11563
(I1
(I1
tp11564
g11
I00
S':\xcdI='
p11565
tp11566
bag1
(g2
(I0
tp11567
g4
tp11568
Rp11569
(I1
(I1
tp11570
g11
I00
S'8\xcdI='
p11571
tp11572
bag1
(g2
(I0
tp11573
g4
tp11574
Rp11575
(I1
(I1
tp11576
g11
I00
S'8\xcdI='
p11577
tp11578
bag1
(g2
(I0
tp11579
g4
tp11580
Rp11581
(I1
(I1
tp11582
g11
I00
S'8\xcdI='
p11583
tp11584
bag1
(g2
(I0
tp11585
g4
tp11586
Rp11587
(I1
(I1
tp11588
g11
I00
S'8\xcdI='
p11589
tp11590
bag1
(g2
(I0
tp11591
g4
tp11592
Rp11593
(I1
(I1
tp11594
g11
I00
S'8\xcdI='
p11595
tp11596
bag1
(g2
(I0
tp11597
g4
tp11598
Rp11599
(I1
(I1
tp11600
g11
I00
S'6\xcdI='
p11601
tp11602
bag1
(g2
(I0
tp11603
g4
tp11604
Rp11605
(I1
(I1
tp11606
g11
I00
S'5\xcdI='
p11607
tp11608
bag1
(g2
(I0
tp11609
g4
tp11610
Rp11611
(I1
(I1
tp11612
g11
I00
S'5\xcdI='
p11613
tp11614
bag1
(g2
(I0
tp11615
g4
tp11616
Rp11617
(I1
(I1
tp11618
g11
I00
S'5\xcdI='
p11619
tp11620
bag1
(g2
(I0
tp11621
g4
tp11622
Rp11623
(I1
(I1
tp11624
g11
I00
S'5\xcdI='
p11625
tp11626
bag1
(g2
(I0
tp11627
g4
tp11628
Rp11629
(I1
(I1
tp11630
g11
I00
S'5\xcdI='
p11631
tp11632
bag1
(g2
(I0
tp11633
g4
tp11634
Rp11635
(I1
(I1
tp11636
g11
I00
S'5\xcdI='
p11637
tp11638
bag1
(g2
(I0
tp11639
g4
tp11640
Rp11641
(I1
(I1
tp11642
g11
I00
S'5\xcdI='
p11643
tp11644
bag1
(g2
(I0
tp11645
g4
tp11646
Rp11647
(I1
(I1
tp11648
g11
I00
S'3\xcdI='
p11649
tp11650
bag1
(g2
(I0
tp11651
g4
tp11652
Rp11653
(I1
(I1
tp11654
g11
I00
S'3\xcdI='
p11655
tp11656
bag1
(g2
(I0
tp11657
g4
tp11658
Rp11659
(I1
(I1
tp11660
g11
I00
S'1\xcdI='
p11661
tp11662
bag1
(g2
(I0
tp11663
g4
tp11664
Rp11665
(I1
(I1
tp11666
g11
I00
S'1\xcdI='
p11667
tp11668
bag1
(g2
(I0
tp11669
g4
tp11670
Rp11671
(I1
(I1
tp11672
g11
I00
S'0\xcdI='
p11673
tp11674
bag1
(g2
(I0
tp11675
g4
tp11676
Rp11677
(I1
(I1
tp11678
g11
I00
S'1\xcdI='
p11679
tp11680
bag1
(g2
(I0
tp11681
g4
tp11682
Rp11683
(I1
(I1
tp11684
g11
I00
S'0\xcdI='
p11685
tp11686
bag1
(g2
(I0
tp11687
g4
tp11688
Rp11689
(I1
(I1
tp11690
g11
I00
S'0\xcdI='
p11691
tp11692
bag1
(g2
(I0
tp11693
g4
tp11694
Rp11695
(I1
(I1
tp11696
g11
I00
S'0\xcdI='
p11697
tp11698
bag1
(g2
(I0
tp11699
g4
tp11700
Rp11701
(I1
(I1
tp11702
g11
I00
S'0\xcdI='
p11703
tp11704
bag1
(g2
(I0
tp11705
g4
tp11706
Rp11707
(I1
(I1
tp11708
g11
I00
S'0\xcdI='
p11709
tp11710
bag1
(g2
(I0
tp11711
g4
tp11712
Rp11713
(I1
(I1
tp11714
g11
I00
S'0\xcdI='
p11715
tp11716
bag1
(g2
(I0
tp11717
g4
tp11718
Rp11719
(I1
(I1
tp11720
g11
I00
S'0\xcdI='
p11721
tp11722
bag1
(g2
(I0
tp11723
g4
tp11724
Rp11725
(I1
(I1
tp11726
g11
I00
S'.\xcdI='
p11727
tp11728
bag1
(g2
(I0
tp11729
g4
tp11730
Rp11731
(I1
(I1
tp11732
g11
I00
S'.\xcdI='
p11733
tp11734
bag1
(g2
(I0
tp11735
g4
tp11736
Rp11737
(I1
(I1
tp11738
g11
I00
S'.\xcdI='
p11739
tp11740
bag1
(g2
(I0
tp11741
g4
tp11742
Rp11743
(I1
(I1
tp11744
g11
I00
S'+\xcdI='
p11745
tp11746
bag1
(g2
(I0
tp11747
g4
tp11748
Rp11749
(I1
(I1
tp11750
g11
I00
S'+\xcdI='
p11751
tp11752
bag1
(g2
(I0
tp11753
g4
tp11754
Rp11755
(I1
(I1
tp11756
g11
I00
S'+\xcdI='
p11757
tp11758
bag1
(g2
(I0
tp11759
g4
tp11760
Rp11761
(I1
(I1
tp11762
g11
I00
S'+\xcdI='
p11763
tp11764
bag1
(g2
(I0
tp11765
g4
tp11766
Rp11767
(I1
(I1
tp11768
g11
I00
S')\xcdI='
p11769
tp11770
bag1
(g2
(I0
tp11771
g4
tp11772
Rp11773
(I1
(I1
tp11774
g11
I00
S')\xcdI='
p11775
tp11776
bag1
(g2
(I0
tp11777
g4
tp11778
Rp11779
(I1
(I1
tp11780
g11
I00
S')\xcdI='
p11781
tp11782
bag1
(g2
(I0
tp11783
g4
tp11784
Rp11785
(I1
(I1
tp11786
g11
I00
S')\xcdI='
p11787
tp11788
bag1
(g2
(I0
tp11789
g4
tp11790
Rp11791
(I1
(I1
tp11792
g11
I00
S')\xcdI='
p11793
tp11794
bag1
(g2
(I0
tp11795
g4
tp11796
Rp11797
(I1
(I1
tp11798
g11
I00
S')\xcdI='
p11799
tp11800
bag1
(g2
(I0
tp11801
g4
tp11802
Rp11803
(I1
(I1
tp11804
g11
I00
S')\xcdI='
p11805
tp11806
bag1
(g2
(I0
tp11807
g4
tp11808
Rp11809
(I1
(I1
tp11810
g11
I00
S"'\xcdI="
p11811
tp11812
bag1
(g2
(I0
tp11813
g4
tp11814
Rp11815
(I1
(I1
tp11816
g11
I00
S"'\xcdI="
p11817
tp11818
bag1
(g2
(I0
tp11819
g4
tp11820
Rp11821
(I1
(I1
tp11822
g11
I00
S"'\xcdI="
p11823
tp11824
bag1
(g2
(I0
tp11825
g4
tp11826
Rp11827
(I1
(I1
tp11828
g11
I00
S"'\xcdI="
p11829
tp11830
bag1
(g2
(I0
tp11831
g4
tp11832
Rp11833
(I1
(I1
tp11834
g11
I00
S"'\xcdI="
p11835
tp11836
bag1
(g2
(I0
tp11837
g4
tp11838
Rp11839
(I1
(I1
tp11840
g11
I00
S'&\xcdI='
p11841
tp11842
bag1
(g2
(I0
tp11843
g4
tp11844
Rp11845
(I1
(I1
tp11846
g11
I00
S'&\xcdI='
p11847
tp11848
bag1
(g2
(I0
tp11849
g4
tp11850
Rp11851
(I1
(I1
tp11852
g11
I00
S'&\xcdI='
p11853
tp11854
bag1
(g2
(I0
tp11855
g4
tp11856
Rp11857
(I1
(I1
tp11858
g11
I00
S'%\xcdI='
p11859
tp11860
bag1
(g2
(I0
tp11861
g4
tp11862
Rp11863
(I1
(I1
tp11864
g11
I00
S'%\xcdI='
p11865
tp11866
bag1
(g2
(I0
tp11867
g4
tp11868
Rp11869
(I1
(I1
tp11870
g11
I00
S'#\xcdI='
p11871
tp11872
bag1
(g2
(I0
tp11873
g4
tp11874
Rp11875
(I1
(I1
tp11876
g11
I00
S'#\xcdI='
p11877
tp11878
bag1
(g2
(I0
tp11879
g4
tp11880
Rp11881
(I1
(I1
tp11882
g11
I00
S'!\xcdI='
p11883
tp11884
bag1
(g2
(I0
tp11885
g4
tp11886
Rp11887
(I1
(I1
tp11888
g11
I00
S'!\xcdI='
p11889
tp11890
bag1
(g2
(I0
tp11891
g4
tp11892
Rp11893
(I1
(I1
tp11894
g11
I00
S'!\xcdI='
p11895
tp11896
bag1
(g2
(I0
tp11897
g4
tp11898
Rp11899
(I1
(I1
tp11900
g11
I00
S'!\xcdI='
p11901
tp11902
bag1
(g2
(I0
tp11903
g4
tp11904
Rp11905
(I1
(I1
tp11906
g11
I00
S'!\xcdI='
p11907
tp11908
bag1
(g2
(I0
tp11909
g4
tp11910
Rp11911
(I1
(I1
tp11912
g11
I00
S'!\xcdI='
p11913
tp11914
bag1
(g2
(I0
tp11915
g4
tp11916
Rp11917
(I1
(I1
tp11918
g11
I00
S'!\xcdI='
p11919
tp11920
bag1
(g2
(I0
tp11921
g4
tp11922
Rp11923
(I1
(I1
tp11924
g11
I00
S'!\xcdI='
p11925
tp11926
bag1
(g2
(I0
tp11927
g4
tp11928
Rp11929
(I1
(I1
tp11930
g11
I00
S'!\xcdI='
p11931
tp11932
bag1
(g2
(I0
tp11933
g4
tp11934
Rp11935
(I1
(I1
tp11936
g11
I00
S'!\xcdI='
p11937
tp11938
bag1
(g2
(I0
tp11939
g4
tp11940
Rp11941
(I1
(I1
tp11942
g11
I00
S'!\xcdI='
p11943
tp11944
bag1
(g2
(I0
tp11945
g4
tp11946
Rp11947
(I1
(I1
tp11948
g11
I00
S'!\xcdI='
p11949
tp11950
bag1
(g2
(I0
tp11951
g4
tp11952
Rp11953
(I1
(I1
tp11954
g11
I00
S'\x1f\xcdI='
p11955
tp11956
bag1
(g2
(I0
tp11957
g4
tp11958
Rp11959
(I1
(I1
tp11960
g11
I00
S'\x1f\xcdI='
p11961
tp11962
bag1
(g2
(I0
tp11963
g4
tp11964
Rp11965
(I1
(I1
tp11966
g11
I00
S'\x1f\xcdI='
p11967
tp11968
bag1
(g2
(I0
tp11969
g4
tp11970
Rp11971
(I1
(I1
tp11972
g11
I00
S'\x1f\xcdI='
p11973
tp11974
bag1
(g2
(I0
tp11975
g4
tp11976
Rp11977
(I1
(I1
tp11978
g11
I00
S'\x1f\xcdI='
p11979
tp11980
bag1
(g2
(I0
tp11981
g4
tp11982
Rp11983
(I1
(I1
tp11984
g11
I00
S'\x1d\xcdI='
p11985
tp11986
bag1
(g2
(I0
tp11987
g4
tp11988
Rp11989
(I1
(I1
tp11990
g11
I00
S'\x1d\xcdI='
p11991
tp11992
bag1
(g2
(I0
tp11993
g4
tp11994
Rp11995
(I1
(I1
tp11996
g11
I00
S'\x1d\xcdI='
p11997
tp11998
bag1
(g2
(I0
tp11999
g4
tp12000
Rp12001
(I1
(I1
tp12002
g11
I00
S'\x1d\xcdI='
p12003
tp12004
bag1
(g2
(I0
tp12005
g4
tp12006
Rp12007
(I1
(I1
tp12008
g11
I00
S'\x1c\xcdI='
p12009
tp12010
baF0.9086294416243654
F0.9090909090909091
tp12011
.